ARM GAS  C:\Users\John_\AppData\Local\Temp\ccgnRU3g.s 			page 1


   1              		.cpu cortex-m4
   2              		.arch armv7e-m
   3              		.fpu fpv4-sp-d16
   4              		.eabi_attribute 27, 1
   5              		.eabi_attribute 28, 1
   6              		.eabi_attribute 20, 1
   7              		.eabi_attribute 21, 1
   8              		.eabi_attribute 23, 3
   9              		.eabi_attribute 24, 1
  10              		.eabi_attribute 25, 1
  11              		.eabi_attribute 26, 1
  12              		.eabi_attribute 30, 1
  13              		.eabi_attribute 34, 1
  14              		.eabi_attribute 18, 4
  15              		.file	"i2c.c"
  16              		.text
  17              	.Ltext0:
  18              		.cfi_sections	.debug_frame
  19              		.file 1 "Core/Src/i2c.c"
  20              		.section	.text.MX_I2C1_Init,"ax",%progbits
  21              		.align	1
  22              		.global	MX_I2C1_Init
  23              		.syntax unified
  24              		.thumb
  25              		.thumb_func
  27              	MX_I2C1_Init:
  28              	.LFB132:
   1:Core/Src/i2c.c **** /* USER CODE BEGIN Header */
   2:Core/Src/i2c.c **** /**
   3:Core/Src/i2c.c ****   ******************************************************************************
   4:Core/Src/i2c.c ****   * @file    i2c.c
   5:Core/Src/i2c.c ****   * @brief   This file provides code for the configuration
   6:Core/Src/i2c.c ****   *          of the I2C instances.
   7:Core/Src/i2c.c ****   ******************************************************************************
   8:Core/Src/i2c.c ****   * @attention
   9:Core/Src/i2c.c ****   *
  10:Core/Src/i2c.c ****   * Copyright (c) 2024 STMicroelectronics.
  11:Core/Src/i2c.c ****   * All rights reserved.
  12:Core/Src/i2c.c ****   *
  13:Core/Src/i2c.c ****   * This software is licensed under terms that can be found in the LICENSE file
  14:Core/Src/i2c.c ****   * in the root directory of this software component.
  15:Core/Src/i2c.c ****   * If no LICENSE file comes with this software, it is provided AS-IS.
  16:Core/Src/i2c.c ****   *
  17:Core/Src/i2c.c ****   ******************************************************************************
  18:Core/Src/i2c.c ****   */
  19:Core/Src/i2c.c **** /* USER CODE END Header */
  20:Core/Src/i2c.c **** /* Includes ------------------------------------------------------------------*/
  21:Core/Src/i2c.c **** #include "i2c.h"
  22:Core/Src/i2c.c **** 
  23:Core/Src/i2c.c **** /* USER CODE BEGIN 0 */
  24:Core/Src/i2c.c **** 
  25:Core/Src/i2c.c **** /* USER CODE END 0 */
  26:Core/Src/i2c.c **** 
  27:Core/Src/i2c.c **** I2C_HandleTypeDef hi2c1;
  28:Core/Src/i2c.c **** 
  29:Core/Src/i2c.c **** /* I2C1 init function */
  30:Core/Src/i2c.c **** void MX_I2C1_Init(void)
ARM GAS  C:\Users\John_\AppData\Local\Temp\ccgnRU3g.s 			page 2


  31:Core/Src/i2c.c **** {
  29              		.loc 1 31 1 view -0
  30              		.cfi_startproc
  31              		@ args = 0, pretend = 0, frame = 0
  32              		@ frame_needed = 0, uses_anonymous_args = 0
  33 0000 08B5     		push	{r3, lr}
  34              		.cfi_def_cfa_offset 8
  35              		.cfi_offset 3, -8
  36              		.cfi_offset 14, -4
  32:Core/Src/i2c.c **** 
  33:Core/Src/i2c.c ****   /* USER CODE BEGIN I2C1_Init 0 */
  34:Core/Src/i2c.c **** 
  35:Core/Src/i2c.c ****   /* USER CODE END I2C1_Init 0 */
  36:Core/Src/i2c.c **** 
  37:Core/Src/i2c.c ****   /* USER CODE BEGIN I2C1_Init 1 */
  38:Core/Src/i2c.c **** 
  39:Core/Src/i2c.c ****   /* USER CODE END I2C1_Init 1 */
  40:Core/Src/i2c.c ****   hi2c1.Instance = I2C1;
  37              		.loc 1 40 3 view .LVU1
  38              		.loc 1 40 18 is_stmt 0 view .LVU2
  39 0002 1548     		ldr	r0, .L9
  40 0004 154B     		ldr	r3, .L9+4
  41 0006 0360     		str	r3, [r0]
  41:Core/Src/i2c.c ****   hi2c1.Init.Timing = 0x30A0A7FB;
  42              		.loc 1 41 3 is_stmt 1 view .LVU3
  43              		.loc 1 41 21 is_stmt 0 view .LVU4
  44 0008 A3F17563 		sub	r3, r3, #256901120
  45 000c A3F57A23 		sub	r3, r3, #1024000
  46 0010 A3F60543 		subw	r3, r3, #3077
  47 0014 4360     		str	r3, [r0, #4]
  42:Core/Src/i2c.c ****   hi2c1.Init.OwnAddress1 = 0;
  48              		.loc 1 42 3 is_stmt 1 view .LVU5
  49              		.loc 1 42 26 is_stmt 0 view .LVU6
  50 0016 0023     		movs	r3, #0
  51 0018 8360     		str	r3, [r0, #8]
  43:Core/Src/i2c.c ****   hi2c1.Init.AddressingMode = I2C_ADDRESSINGMODE_7BIT;
  52              		.loc 1 43 3 is_stmt 1 view .LVU7
  53              		.loc 1 43 29 is_stmt 0 view .LVU8
  54 001a 0122     		movs	r2, #1
  55 001c C260     		str	r2, [r0, #12]
  44:Core/Src/i2c.c ****   hi2c1.Init.DualAddressMode = I2C_DUALADDRESS_DISABLE;
  56              		.loc 1 44 3 is_stmt 1 view .LVU9
  57              		.loc 1 44 30 is_stmt 0 view .LVU10
  58 001e 0361     		str	r3, [r0, #16]
  45:Core/Src/i2c.c ****   hi2c1.Init.OwnAddress2 = 0;
  59              		.loc 1 45 3 is_stmt 1 view .LVU11
  60              		.loc 1 45 26 is_stmt 0 view .LVU12
  61 0020 4361     		str	r3, [r0, #20]
  46:Core/Src/i2c.c ****   hi2c1.Init.OwnAddress2Masks = I2C_OA2_NOMASK;
  62              		.loc 1 46 3 is_stmt 1 view .LVU13
  63              		.loc 1 46 31 is_stmt 0 view .LVU14
  64 0022 8361     		str	r3, [r0, #24]
  47:Core/Src/i2c.c ****   hi2c1.Init.GeneralCallMode = I2C_GENERALCALL_DISABLE;
  65              		.loc 1 47 3 is_stmt 1 view .LVU15
  66              		.loc 1 47 30 is_stmt 0 view .LVU16
  67 0024 C361     		str	r3, [r0, #28]
  48:Core/Src/i2c.c ****   hi2c1.Init.NoStretchMode = I2C_NOSTRETCH_DISABLE;
ARM GAS  C:\Users\John_\AppData\Local\Temp\ccgnRU3g.s 			page 3


  68              		.loc 1 48 3 is_stmt 1 view .LVU17
  69              		.loc 1 48 28 is_stmt 0 view .LVU18
  70 0026 0362     		str	r3, [r0, #32]
  49:Core/Src/i2c.c ****   if (HAL_I2C_Init(&hi2c1) != HAL_OK)
  71              		.loc 1 49 3 is_stmt 1 view .LVU19
  72              		.loc 1 49 7 is_stmt 0 view .LVU20
  73 0028 FFF7FEFF 		bl	HAL_I2C_Init
  74              	.LVL0:
  75              		.loc 1 49 6 discriminator 1 view .LVU21
  76 002c 50B9     		cbnz	r0, .L6
  77              	.L2:
  50:Core/Src/i2c.c ****   {
  51:Core/Src/i2c.c ****     Error_Handler();
  52:Core/Src/i2c.c ****   }
  53:Core/Src/i2c.c **** 
  54:Core/Src/i2c.c ****   /** Configure Analogue filter
  55:Core/Src/i2c.c ****   */
  56:Core/Src/i2c.c ****   if (HAL_I2CEx_ConfigAnalogFilter(&hi2c1, I2C_ANALOGFILTER_ENABLE) != HAL_OK)
  78              		.loc 1 56 3 is_stmt 1 view .LVU22
  79              		.loc 1 56 7 is_stmt 0 view .LVU23
  80 002e 0021     		movs	r1, #0
  81 0030 0948     		ldr	r0, .L9
  82 0032 FFF7FEFF 		bl	HAL_I2CEx_ConfigAnalogFilter
  83              	.LVL1:
  84              		.loc 1 56 6 discriminator 1 view .LVU24
  85 0036 40B9     		cbnz	r0, .L7
  86              	.L3:
  57:Core/Src/i2c.c ****   {
  58:Core/Src/i2c.c ****     Error_Handler();
  59:Core/Src/i2c.c ****   }
  60:Core/Src/i2c.c **** 
  61:Core/Src/i2c.c ****   /** Configure Digital filter
  62:Core/Src/i2c.c ****   */
  63:Core/Src/i2c.c ****   if (HAL_I2CEx_ConfigDigitalFilter(&hi2c1, 0) != HAL_OK)
  87              		.loc 1 63 3 is_stmt 1 view .LVU25
  88              		.loc 1 63 7 is_stmt 0 view .LVU26
  89 0038 0021     		movs	r1, #0
  90 003a 0748     		ldr	r0, .L9
  91 003c FFF7FEFF 		bl	HAL_I2CEx_ConfigDigitalFilter
  92              	.LVL2:
  93              		.loc 1 63 6 discriminator 1 view .LVU27
  94 0040 30B9     		cbnz	r0, .L8
  95              	.L1:
  64:Core/Src/i2c.c ****   {
  65:Core/Src/i2c.c ****     Error_Handler();
  66:Core/Src/i2c.c ****   }
  67:Core/Src/i2c.c ****   /* USER CODE BEGIN I2C1_Init 2 */
  68:Core/Src/i2c.c **** 
  69:Core/Src/i2c.c ****   /* USER CODE END I2C1_Init 2 */
  70:Core/Src/i2c.c **** 
  71:Core/Src/i2c.c **** }
  96              		.loc 1 71 1 view .LVU28
  97 0042 08BD     		pop	{r3, pc}
  98              	.L6:
  51:Core/Src/i2c.c ****   }
  99              		.loc 1 51 5 is_stmt 1 view .LVU29
 100 0044 FFF7FEFF 		bl	Error_Handler
ARM GAS  C:\Users\John_\AppData\Local\Temp\ccgnRU3g.s 			page 4


 101              	.LVL3:
 102 0048 F1E7     		b	.L2
 103              	.L7:
  58:Core/Src/i2c.c ****   }
 104              		.loc 1 58 5 view .LVU30
 105 004a FFF7FEFF 		bl	Error_Handler
 106              	.LVL4:
 107 004e F3E7     		b	.L3
 108              	.L8:
  65:Core/Src/i2c.c ****   }
 109              		.loc 1 65 5 view .LVU31
 110 0050 FFF7FEFF 		bl	Error_Handler
 111              	.LVL5:
 112              		.loc 1 71 1 is_stmt 0 view .LVU32
 113 0054 F5E7     		b	.L1
 114              	.L10:
 115 0056 00BF     		.align	2
 116              	.L9:
 117 0058 00000000 		.word	hi2c1
 118 005c 00540040 		.word	1073763328
 119              		.cfi_endproc
 120              	.LFE132:
 122              		.section	.text.HAL_I2C_MspInit,"ax",%progbits
 123              		.align	1
 124              		.global	HAL_I2C_MspInit
 125              		.syntax unified
 126              		.thumb
 127              		.thumb_func
 129              	HAL_I2C_MspInit:
 130              	.LVL6:
 131              	.LFB133:
  72:Core/Src/i2c.c **** 
  73:Core/Src/i2c.c **** void HAL_I2C_MspInit(I2C_HandleTypeDef* i2cHandle)
  74:Core/Src/i2c.c **** {
 132              		.loc 1 74 1 is_stmt 1 view -0
 133              		.cfi_startproc
 134              		@ args = 0, pretend = 0, frame = 104
 135              		@ frame_needed = 0, uses_anonymous_args = 0
 136              		.loc 1 74 1 is_stmt 0 view .LVU34
 137 0000 F0B5     		push	{r4, r5, r6, r7, lr}
 138              		.cfi_def_cfa_offset 20
 139              		.cfi_offset 4, -20
 140              		.cfi_offset 5, -16
 141              		.cfi_offset 6, -12
 142              		.cfi_offset 7, -8
 143              		.cfi_offset 14, -4
 144 0002 9BB0     		sub	sp, sp, #108
 145              		.cfi_def_cfa_offset 128
 146 0004 0446     		mov	r4, r0
  75:Core/Src/i2c.c **** 
  76:Core/Src/i2c.c ****   GPIO_InitTypeDef GPIO_InitStruct = {0};
 147              		.loc 1 76 3 is_stmt 1 view .LVU35
 148              		.loc 1 76 20 is_stmt 0 view .LVU36
 149 0006 0021     		movs	r1, #0
 150 0008 1591     		str	r1, [sp, #84]
 151 000a 1691     		str	r1, [sp, #88]
 152 000c 1791     		str	r1, [sp, #92]
ARM GAS  C:\Users\John_\AppData\Local\Temp\ccgnRU3g.s 			page 5


 153 000e 1891     		str	r1, [sp, #96]
 154 0010 1991     		str	r1, [sp, #100]
  77:Core/Src/i2c.c ****   RCC_PeriphCLKInitTypeDef PeriphClkInit = {0};
 155              		.loc 1 77 3 is_stmt 1 view .LVU37
 156              		.loc 1 77 28 is_stmt 0 view .LVU38
 157 0012 4422     		movs	r2, #68
 158 0014 04A8     		add	r0, sp, #16
 159              	.LVL7:
 160              		.loc 1 77 28 view .LVU39
 161 0016 FFF7FEFF 		bl	memset
 162              	.LVL8:
  78:Core/Src/i2c.c ****   if(i2cHandle->Instance==I2C1)
 163              		.loc 1 78 3 is_stmt 1 view .LVU40
 164              		.loc 1 78 15 is_stmt 0 view .LVU41
 165 001a 2268     		ldr	r2, [r4]
 166              		.loc 1 78 5 view .LVU42
 167 001c 224B     		ldr	r3, .L17
 168 001e 9A42     		cmp	r2, r3
 169 0020 01D0     		beq	.L15
 170              	.LVL9:
 171              	.L11:
  79:Core/Src/i2c.c ****   {
  80:Core/Src/i2c.c ****   /* USER CODE BEGIN I2C1_MspInit 0 */
  81:Core/Src/i2c.c **** 
  82:Core/Src/i2c.c ****   /* USER CODE END I2C1_MspInit 0 */
  83:Core/Src/i2c.c **** 
  84:Core/Src/i2c.c ****   /** Initializes the peripherals clocks
  85:Core/Src/i2c.c ****   */
  86:Core/Src/i2c.c ****     PeriphClkInit.PeriphClockSelection = RCC_PERIPHCLK_I2C1;
  87:Core/Src/i2c.c ****     PeriphClkInit.I2c1ClockSelection = RCC_I2C1CLKSOURCE_PCLK1;
  88:Core/Src/i2c.c ****     if (HAL_RCCEx_PeriphCLKConfig(&PeriphClkInit) != HAL_OK)
  89:Core/Src/i2c.c ****     {
  90:Core/Src/i2c.c ****       Error_Handler();
  91:Core/Src/i2c.c ****     }
  92:Core/Src/i2c.c **** 
  93:Core/Src/i2c.c ****     __HAL_RCC_GPIOA_CLK_ENABLE();
  94:Core/Src/i2c.c ****     __HAL_RCC_GPIOB_CLK_ENABLE();
  95:Core/Src/i2c.c ****     /**I2C1 GPIO Configuration
  96:Core/Src/i2c.c ****     PA15     ------> I2C1_SCL
  97:Core/Src/i2c.c ****     PB7     ------> I2C1_SDA
  98:Core/Src/i2c.c ****     */
  99:Core/Src/i2c.c ****     GPIO_InitStruct.Pin = GPIO_PIN_15;
 100:Core/Src/i2c.c ****     GPIO_InitStruct.Mode = GPIO_MODE_AF_OD;
 101:Core/Src/i2c.c ****     GPIO_InitStruct.Pull = GPIO_NOPULL;
 102:Core/Src/i2c.c ****     GPIO_InitStruct.Speed = GPIO_SPEED_FREQ_LOW;
 103:Core/Src/i2c.c ****     GPIO_InitStruct.Alternate = GPIO_AF4_I2C1;
 104:Core/Src/i2c.c ****     HAL_GPIO_Init(GPIOA, &GPIO_InitStruct);
 105:Core/Src/i2c.c **** 
 106:Core/Src/i2c.c ****     GPIO_InitStruct.Pin = GPIO_PIN_7;
 107:Core/Src/i2c.c ****     GPIO_InitStruct.Mode = GPIO_MODE_AF_OD;
 108:Core/Src/i2c.c ****     GPIO_InitStruct.Pull = GPIO_NOPULL;
 109:Core/Src/i2c.c ****     GPIO_InitStruct.Speed = GPIO_SPEED_FREQ_LOW;
 110:Core/Src/i2c.c ****     GPIO_InitStruct.Alternate = GPIO_AF4_I2C1;
 111:Core/Src/i2c.c ****     HAL_GPIO_Init(GPIOB, &GPIO_InitStruct);
 112:Core/Src/i2c.c **** 
 113:Core/Src/i2c.c ****     /* I2C1 clock enable */
 114:Core/Src/i2c.c ****     __HAL_RCC_I2C1_CLK_ENABLE();
ARM GAS  C:\Users\John_\AppData\Local\Temp\ccgnRU3g.s 			page 6


 115:Core/Src/i2c.c ****   /* USER CODE BEGIN I2C1_MspInit 1 */
 116:Core/Src/i2c.c **** 
 117:Core/Src/i2c.c ****   /* USER CODE END I2C1_MspInit 1 */
 118:Core/Src/i2c.c ****   }
 119:Core/Src/i2c.c **** }
 172              		.loc 1 119 1 view .LVU43
 173 0022 1BB0     		add	sp, sp, #108
 174              		.cfi_remember_state
 175              		.cfi_def_cfa_offset 20
 176              		@ sp needed
 177 0024 F0BD     		pop	{r4, r5, r6, r7, pc}
 178              	.LVL10:
 179              	.L15:
 180              		.cfi_restore_state
  86:Core/Src/i2c.c ****     PeriphClkInit.I2c1ClockSelection = RCC_I2C1CLKSOURCE_PCLK1;
 181              		.loc 1 86 5 is_stmt 1 view .LVU44
  86:Core/Src/i2c.c ****     PeriphClkInit.I2c1ClockSelection = RCC_I2C1CLKSOURCE_PCLK1;
 182              		.loc 1 86 40 is_stmt 0 view .LVU45
 183 0026 4023     		movs	r3, #64
 184 0028 0493     		str	r3, [sp, #16]
  87:Core/Src/i2c.c ****     if (HAL_RCCEx_PeriphCLKConfig(&PeriphClkInit) != HAL_OK)
 185              		.loc 1 87 5 is_stmt 1 view .LVU46
  88:Core/Src/i2c.c ****     {
 186              		.loc 1 88 5 view .LVU47
  88:Core/Src/i2c.c ****     {
 187              		.loc 1 88 9 is_stmt 0 view .LVU48
 188 002a 04A8     		add	r0, sp, #16
 189 002c FFF7FEFF 		bl	HAL_RCCEx_PeriphCLKConfig
 190              	.LVL11:
  88:Core/Src/i2c.c ****     {
 191              		.loc 1 88 8 discriminator 1 view .LVU49
 192 0030 0028     		cmp	r0, #0
 193 0032 35D1     		bne	.L16
 194              	.L13:
  93:Core/Src/i2c.c ****     __HAL_RCC_GPIOB_CLK_ENABLE();
 195              		.loc 1 93 5 is_stmt 1 view .LVU50
 196              	.LBB2:
  93:Core/Src/i2c.c ****     __HAL_RCC_GPIOB_CLK_ENABLE();
 197              		.loc 1 93 5 view .LVU51
  93:Core/Src/i2c.c ****     __HAL_RCC_GPIOB_CLK_ENABLE();
 198              		.loc 1 93 5 view .LVU52
 199 0034 1D4C     		ldr	r4, .L17+4
 200              	.LVL12:
  93:Core/Src/i2c.c ****     __HAL_RCC_GPIOB_CLK_ENABLE();
 201              		.loc 1 93 5 is_stmt 0 view .LVU53
 202 0036 E36C     		ldr	r3, [r4, #76]
 203 0038 43F00103 		orr	r3, r3, #1
 204 003c E364     		str	r3, [r4, #76]
  93:Core/Src/i2c.c ****     __HAL_RCC_GPIOB_CLK_ENABLE();
 205              		.loc 1 93 5 is_stmt 1 view .LVU54
 206 003e E36C     		ldr	r3, [r4, #76]
 207 0040 03F00103 		and	r3, r3, #1
 208 0044 0193     		str	r3, [sp, #4]
  93:Core/Src/i2c.c ****     __HAL_RCC_GPIOB_CLK_ENABLE();
 209              		.loc 1 93 5 view .LVU55
 210 0046 019B     		ldr	r3, [sp, #4]
 211              	.LBE2:
ARM GAS  C:\Users\John_\AppData\Local\Temp\ccgnRU3g.s 			page 7


  93:Core/Src/i2c.c ****     __HAL_RCC_GPIOB_CLK_ENABLE();
 212              		.loc 1 93 5 view .LVU56
  94:Core/Src/i2c.c ****     /**I2C1 GPIO Configuration
 213              		.loc 1 94 5 view .LVU57
 214              	.LBB3:
  94:Core/Src/i2c.c ****     /**I2C1 GPIO Configuration
 215              		.loc 1 94 5 view .LVU58
  94:Core/Src/i2c.c ****     /**I2C1 GPIO Configuration
 216              		.loc 1 94 5 view .LVU59
 217 0048 E36C     		ldr	r3, [r4, #76]
 218 004a 43F00203 		orr	r3, r3, #2
 219 004e E364     		str	r3, [r4, #76]
  94:Core/Src/i2c.c ****     /**I2C1 GPIO Configuration
 220              		.loc 1 94 5 view .LVU60
 221 0050 E36C     		ldr	r3, [r4, #76]
 222 0052 03F00203 		and	r3, r3, #2
 223 0056 0293     		str	r3, [sp, #8]
  94:Core/Src/i2c.c ****     /**I2C1 GPIO Configuration
 224              		.loc 1 94 5 view .LVU61
 225 0058 029B     		ldr	r3, [sp, #8]
 226              	.LBE3:
  94:Core/Src/i2c.c ****     /**I2C1 GPIO Configuration
 227              		.loc 1 94 5 view .LVU62
  99:Core/Src/i2c.c ****     GPIO_InitStruct.Mode = GPIO_MODE_AF_OD;
 228              		.loc 1 99 5 view .LVU63
  99:Core/Src/i2c.c ****     GPIO_InitStruct.Mode = GPIO_MODE_AF_OD;
 229              		.loc 1 99 25 is_stmt 0 view .LVU64
 230 005a 4FF40043 		mov	r3, #32768
 231 005e 1593     		str	r3, [sp, #84]
 100:Core/Src/i2c.c ****     GPIO_InitStruct.Pull = GPIO_NOPULL;
 232              		.loc 1 100 5 is_stmt 1 view .LVU65
 100:Core/Src/i2c.c ****     GPIO_InitStruct.Pull = GPIO_NOPULL;
 233              		.loc 1 100 26 is_stmt 0 view .LVU66
 234 0060 1227     		movs	r7, #18
 235 0062 1697     		str	r7, [sp, #88]
 101:Core/Src/i2c.c ****     GPIO_InitStruct.Speed = GPIO_SPEED_FREQ_LOW;
 236              		.loc 1 101 5 is_stmt 1 view .LVU67
 101:Core/Src/i2c.c ****     GPIO_InitStruct.Speed = GPIO_SPEED_FREQ_LOW;
 237              		.loc 1 101 26 is_stmt 0 view .LVU68
 238 0064 0025     		movs	r5, #0
 239 0066 1795     		str	r5, [sp, #92]
 102:Core/Src/i2c.c ****     GPIO_InitStruct.Alternate = GPIO_AF4_I2C1;
 240              		.loc 1 102 5 is_stmt 1 view .LVU69
 102:Core/Src/i2c.c ****     GPIO_InitStruct.Alternate = GPIO_AF4_I2C1;
 241              		.loc 1 102 27 is_stmt 0 view .LVU70
 242 0068 1895     		str	r5, [sp, #96]
 103:Core/Src/i2c.c ****     HAL_GPIO_Init(GPIOA, &GPIO_InitStruct);
 243              		.loc 1 103 5 is_stmt 1 view .LVU71
 103:Core/Src/i2c.c ****     HAL_GPIO_Init(GPIOA, &GPIO_InitStruct);
 244              		.loc 1 103 31 is_stmt 0 view .LVU72
 245 006a 0426     		movs	r6, #4
 246 006c 1996     		str	r6, [sp, #100]
 104:Core/Src/i2c.c **** 
 247              		.loc 1 104 5 is_stmt 1 view .LVU73
 248 006e 15A9     		add	r1, sp, #84
 249 0070 4FF09040 		mov	r0, #1207959552
 250 0074 FFF7FEFF 		bl	HAL_GPIO_Init
ARM GAS  C:\Users\John_\AppData\Local\Temp\ccgnRU3g.s 			page 8


 251              	.LVL13:
 106:Core/Src/i2c.c ****     GPIO_InitStruct.Mode = GPIO_MODE_AF_OD;
 252              		.loc 1 106 5 view .LVU74
 106:Core/Src/i2c.c ****     GPIO_InitStruct.Mode = GPIO_MODE_AF_OD;
 253              		.loc 1 106 25 is_stmt 0 view .LVU75
 254 0078 8023     		movs	r3, #128
 255 007a 1593     		str	r3, [sp, #84]
 107:Core/Src/i2c.c ****     GPIO_InitStruct.Pull = GPIO_NOPULL;
 256              		.loc 1 107 5 is_stmt 1 view .LVU76
 107:Core/Src/i2c.c ****     GPIO_InitStruct.Pull = GPIO_NOPULL;
 257              		.loc 1 107 26 is_stmt 0 view .LVU77
 258 007c 1697     		str	r7, [sp, #88]
 108:Core/Src/i2c.c ****     GPIO_InitStruct.Speed = GPIO_SPEED_FREQ_LOW;
 259              		.loc 1 108 5 is_stmt 1 view .LVU78
 108:Core/Src/i2c.c ****     GPIO_InitStruct.Speed = GPIO_SPEED_FREQ_LOW;
 260              		.loc 1 108 26 is_stmt 0 view .LVU79
 261 007e 1795     		str	r5, [sp, #92]
 109:Core/Src/i2c.c ****     GPIO_InitStruct.Alternate = GPIO_AF4_I2C1;
 262              		.loc 1 109 5 is_stmt 1 view .LVU80
 109:Core/Src/i2c.c ****     GPIO_InitStruct.Alternate = GPIO_AF4_I2C1;
 263              		.loc 1 109 27 is_stmt 0 view .LVU81
 264 0080 1895     		str	r5, [sp, #96]
 110:Core/Src/i2c.c ****     HAL_GPIO_Init(GPIOB, &GPIO_InitStruct);
 265              		.loc 1 110 5 is_stmt 1 view .LVU82
 110:Core/Src/i2c.c ****     HAL_GPIO_Init(GPIOB, &GPIO_InitStruct);
 266              		.loc 1 110 31 is_stmt 0 view .LVU83
 267 0082 1996     		str	r6, [sp, #100]
 111:Core/Src/i2c.c **** 
 268              		.loc 1 111 5 is_stmt 1 view .LVU84
 269 0084 15A9     		add	r1, sp, #84
 270 0086 0A48     		ldr	r0, .L17+8
 271 0088 FFF7FEFF 		bl	HAL_GPIO_Init
 272              	.LVL14:
 114:Core/Src/i2c.c ****   /* USER CODE BEGIN I2C1_MspInit 1 */
 273              		.loc 1 114 5 view .LVU85
 274              	.LBB4:
 114:Core/Src/i2c.c ****   /* USER CODE BEGIN I2C1_MspInit 1 */
 275              		.loc 1 114 5 view .LVU86
 114:Core/Src/i2c.c ****   /* USER CODE BEGIN I2C1_MspInit 1 */
 276              		.loc 1 114 5 view .LVU87
 277 008c A36D     		ldr	r3, [r4, #88]
 278 008e 43F40013 		orr	r3, r3, #2097152
 279 0092 A365     		str	r3, [r4, #88]
 114:Core/Src/i2c.c ****   /* USER CODE BEGIN I2C1_MspInit 1 */
 280              		.loc 1 114 5 view .LVU88
 281 0094 A36D     		ldr	r3, [r4, #88]
 282 0096 03F40013 		and	r3, r3, #2097152
 283 009a 0393     		str	r3, [sp, #12]
 114:Core/Src/i2c.c ****   /* USER CODE BEGIN I2C1_MspInit 1 */
 284              		.loc 1 114 5 view .LVU89
 285 009c 039B     		ldr	r3, [sp, #12]
 286              	.LBE4:
 114:Core/Src/i2c.c ****   /* USER CODE BEGIN I2C1_MspInit 1 */
 287              		.loc 1 114 5 discriminator 1 view .LVU90
 288              		.loc 1 119 1 is_stmt 0 view .LVU91
 289 009e C0E7     		b	.L11
 290              	.LVL15:
ARM GAS  C:\Users\John_\AppData\Local\Temp\ccgnRU3g.s 			page 9


 291              	.L16:
  90:Core/Src/i2c.c ****     }
 292              		.loc 1 90 7 is_stmt 1 view .LVU92
 293 00a0 FFF7FEFF 		bl	Error_Handler
 294              	.LVL16:
 295 00a4 C6E7     		b	.L13
 296              	.L18:
 297 00a6 00BF     		.align	2
 298              	.L17:
 299 00a8 00540040 		.word	1073763328
 300 00ac 00100240 		.word	1073876992
 301 00b0 00040048 		.word	1207960576
 302              		.cfi_endproc
 303              	.LFE133:
 305              		.section	.text.HAL_I2C_MspDeInit,"ax",%progbits
 306              		.align	1
 307              		.global	HAL_I2C_MspDeInit
 308              		.syntax unified
 309              		.thumb
 310              		.thumb_func
 312              	HAL_I2C_MspDeInit:
 313              	.LVL17:
 314              	.LFB134:
 120:Core/Src/i2c.c **** 
 121:Core/Src/i2c.c **** void HAL_I2C_MspDeInit(I2C_HandleTypeDef* i2cHandle)
 122:Core/Src/i2c.c **** {
 315              		.loc 1 122 1 view -0
 316              		.cfi_startproc
 317              		@ args = 0, pretend = 0, frame = 0
 318              		@ frame_needed = 0, uses_anonymous_args = 0
 319              		.loc 1 122 1 is_stmt 0 view .LVU94
 320 0000 08B5     		push	{r3, lr}
 321              		.cfi_def_cfa_offset 8
 322              		.cfi_offset 3, -8
 323              		.cfi_offset 14, -4
 123:Core/Src/i2c.c **** 
 124:Core/Src/i2c.c ****   if(i2cHandle->Instance==I2C1)
 324              		.loc 1 124 3 is_stmt 1 view .LVU95
 325              		.loc 1 124 15 is_stmt 0 view .LVU96
 326 0002 0268     		ldr	r2, [r0]
 327              		.loc 1 124 5 view .LVU97
 328 0004 094B     		ldr	r3, .L23
 329 0006 9A42     		cmp	r2, r3
 330 0008 00D0     		beq	.L22
 331              	.LVL18:
 332              	.L19:
 125:Core/Src/i2c.c ****   {
 126:Core/Src/i2c.c ****   /* USER CODE BEGIN I2C1_MspDeInit 0 */
 127:Core/Src/i2c.c **** 
 128:Core/Src/i2c.c ****   /* USER CODE END I2C1_MspDeInit 0 */
 129:Core/Src/i2c.c ****     /* Peripheral clock disable */
 130:Core/Src/i2c.c ****     __HAL_RCC_I2C1_CLK_DISABLE();
 131:Core/Src/i2c.c **** 
 132:Core/Src/i2c.c ****     /**I2C1 GPIO Configuration
 133:Core/Src/i2c.c ****     PA15     ------> I2C1_SCL
 134:Core/Src/i2c.c ****     PB7     ------> I2C1_SDA
 135:Core/Src/i2c.c ****     */
ARM GAS  C:\Users\John_\AppData\Local\Temp\ccgnRU3g.s 			page 10


 136:Core/Src/i2c.c ****     HAL_GPIO_DeInit(GPIOA, GPIO_PIN_15);
 137:Core/Src/i2c.c **** 
 138:Core/Src/i2c.c ****     HAL_GPIO_DeInit(GPIOB, GPIO_PIN_7);
 139:Core/Src/i2c.c **** 
 140:Core/Src/i2c.c ****   /* USER CODE BEGIN I2C1_MspDeInit 1 */
 141:Core/Src/i2c.c **** 
 142:Core/Src/i2c.c ****   /* USER CODE END I2C1_MspDeInit 1 */
 143:Core/Src/i2c.c ****   }
 144:Core/Src/i2c.c **** }
 333              		.loc 1 144 1 view .LVU98
 334 000a 08BD     		pop	{r3, pc}
 335              	.LVL19:
 336              	.L22:
 130:Core/Src/i2c.c **** 
 337              		.loc 1 130 5 is_stmt 1 view .LVU99
 338 000c 084A     		ldr	r2, .L23+4
 339 000e 936D     		ldr	r3, [r2, #88]
 340 0010 23F40013 		bic	r3, r3, #2097152
 341 0014 9365     		str	r3, [r2, #88]
 136:Core/Src/i2c.c **** 
 342              		.loc 1 136 5 view .LVU100
 343 0016 4FF40041 		mov	r1, #32768
 344 001a 4FF09040 		mov	r0, #1207959552
 345              	.LVL20:
 136:Core/Src/i2c.c **** 
 346              		.loc 1 136 5 is_stmt 0 view .LVU101
 347 001e FFF7FEFF 		bl	HAL_GPIO_DeInit
 348              	.LVL21:
 138:Core/Src/i2c.c **** 
 349              		.loc 1 138 5 is_stmt 1 view .LVU102
 350 0022 8021     		movs	r1, #128
 351 0024 0348     		ldr	r0, .L23+8
 352 0026 FFF7FEFF 		bl	HAL_GPIO_DeInit
 353              	.LVL22:
 354              		.loc 1 144 1 is_stmt 0 view .LVU103
 355 002a EEE7     		b	.L19
 356              	.L24:
 357              		.align	2
 358              	.L23:
 359 002c 00540040 		.word	1073763328
 360 0030 00100240 		.word	1073876992
 361 0034 00040048 		.word	1207960576
 362              		.cfi_endproc
 363              	.LFE134:
 365              		.global	hi2c1
 366              		.section	.bss.hi2c1,"aw",%nobits
 367              		.align	2
 370              	hi2c1:
 371 0000 00000000 		.space	84
 371      00000000 
 371      00000000 
 371      00000000 
 371      00000000 
 372              		.text
 373              	.Letext0:
 374              		.file 2 "C:/Users/John_/AppData/Roaming/Code/User/globalStorage/bmd.stm32-for-vscode/@xpack-dev-to
 375              		.file 3 "C:/Users/John_/AppData/Roaming/Code/User/globalStorage/bmd.stm32-for-vscode/@xpack-dev-to
ARM GAS  C:\Users\John_\AppData\Local\Temp\ccgnRU3g.s 			page 11


 376              		.file 4 "Drivers/CMSIS/Device/ST/STM32G4xx/Include/stm32g431xx.h"
 377              		.file 5 "Drivers/STM32G4xx_HAL_Driver/Inc/stm32g4xx_hal_def.h"
 378              		.file 6 "Drivers/STM32G4xx_HAL_Driver/Inc/stm32g4xx_hal_rcc_ex.h"
 379              		.file 7 "Drivers/STM32G4xx_HAL_Driver/Inc/stm32g4xx_hal_gpio.h"
 380              		.file 8 "Drivers/STM32G4xx_HAL_Driver/Inc/stm32g4xx_hal_dma.h"
 381              		.file 9 "Drivers/STM32G4xx_HAL_Driver/Inc/stm32g4xx_hal_i2c.h"
 382              		.file 10 "Drivers/STM32G4xx_HAL_Driver/Inc/stm32g4xx_hal_i2c_ex.h"
 383              		.file 11 "Core/Inc/i2c.h"
 384              		.file 12 "Core/Inc/main.h"
 385              		.file 13 "<built-in>"
ARM GAS  C:\Users\John_\AppData\Local\Temp\ccgnRU3g.s 			page 12

