ARM GAS  C:\Users\vmyhr\AppData\Local\Temp\cc8Ewmnn.s 			page 1


   1              		.cpu cortex-m4
   2              		.arch armv7e-m
   3              		.fpu fpv4-sp-d16
   4              		.eabi_attribute 27, 1
   5              		.eabi_attribute 28, 1
   6              		.eabi_attribute 20, 1
   7              		.eabi_attribute 21, 1
   8              		.eabi_attribute 23, 3
   9              		.eabi_attribute 24, 1
  10              		.eabi_attribute 25, 1
  11              		.eabi_attribute 26, 1
  12              		.eabi_attribute 30, 1
  13              		.eabi_attribute 34, 1
  14              		.eabi_attribute 18, 4
  15              		.file	"stm32g4xx_it.c"
  16              		.text
  17              	.Ltext0:
  18              		.cfi_sections	.debug_frame
  19              		.file 1 "Core/Src/stm32g4xx_it.c"
  20              		.section	.text.NMI_Handler,"ax",%progbits
  21              		.align	1
  22              		.global	NMI_Handler
  23              		.syntax unified
  24              		.thumb
  25              		.thumb_func
  27              	NMI_Handler:
  28              	.LFB132:
   1:Core/Src/stm32g4xx_it.c **** /* USER CODE BEGIN Header */
   2:Core/Src/stm32g4xx_it.c **** /**
   3:Core/Src/stm32g4xx_it.c ****  ******************************************************************************
   4:Core/Src/stm32g4xx_it.c ****  * @file    stm32g4xx_it.c
   5:Core/Src/stm32g4xx_it.c ****  * @brief   Interrupt Service Routines.
   6:Core/Src/stm32g4xx_it.c ****  ******************************************************************************
   7:Core/Src/stm32g4xx_it.c ****  * @attention
   8:Core/Src/stm32g4xx_it.c ****  *
   9:Core/Src/stm32g4xx_it.c ****  * Copyright (c) 2024 STMicroelectronics.
  10:Core/Src/stm32g4xx_it.c ****  * All rights reserved.
  11:Core/Src/stm32g4xx_it.c ****  *
  12:Core/Src/stm32g4xx_it.c ****  * This software is licensed under terms that can be found in the LICENSE file
  13:Core/Src/stm32g4xx_it.c ****  * in the root directory of this software component.
  14:Core/Src/stm32g4xx_it.c ****  * If no LICENSE file comes with this software, it is provided AS-IS.
  15:Core/Src/stm32g4xx_it.c ****  *
  16:Core/Src/stm32g4xx_it.c ****  ******************************************************************************
  17:Core/Src/stm32g4xx_it.c ****  */
  18:Core/Src/stm32g4xx_it.c **** /* USER CODE END Header */
  19:Core/Src/stm32g4xx_it.c **** 
  20:Core/Src/stm32g4xx_it.c **** /* Includes ------------------------------------------------------------------*/
  21:Core/Src/stm32g4xx_it.c **** #include "main.h"
  22:Core/Src/stm32g4xx_it.c **** #include "stm32g4xx_it.h"
  23:Core/Src/stm32g4xx_it.c **** /* Private includes ----------------------------------------------------------*/
  24:Core/Src/stm32g4xx_it.c **** /* USER CODE BEGIN Includes */
  25:Core/Src/stm32g4xx_it.c **** #include "stdint.h"
  26:Core/Src/stm32g4xx_it.c **** #include "spi_slave_module.h"
  27:Core/Src/stm32g4xx_it.c **** #include "string.h"
  28:Core/Src/stm32g4xx_it.c **** #include "spi.h"
  29:Core/Src/stm32g4xx_it.c **** /* USER CODE END Includes */
  30:Core/Src/stm32g4xx_it.c **** 
ARM GAS  C:\Users\vmyhr\AppData\Local\Temp\cc8Ewmnn.s 			page 2


  31:Core/Src/stm32g4xx_it.c **** /* Private typedef -----------------------------------------------------------*/
  32:Core/Src/stm32g4xx_it.c **** /* USER CODE BEGIN TD */
  33:Core/Src/stm32g4xx_it.c **** 
  34:Core/Src/stm32g4xx_it.c **** /* USER CODE END TD */
  35:Core/Src/stm32g4xx_it.c **** 
  36:Core/Src/stm32g4xx_it.c **** /* Private define ------------------------------------------------------------*/
  37:Core/Src/stm32g4xx_it.c **** /* USER CODE BEGIN PD */
  38:Core/Src/stm32g4xx_it.c **** 
  39:Core/Src/stm32g4xx_it.c **** /* USER CODE END PD */
  40:Core/Src/stm32g4xx_it.c **** 
  41:Core/Src/stm32g4xx_it.c **** /* Private macro -------------------------------------------------------------*/
  42:Core/Src/stm32g4xx_it.c **** /* USER CODE BEGIN PM */
  43:Core/Src/stm32g4xx_it.c **** 
  44:Core/Src/stm32g4xx_it.c **** /* USER CODE END PM */
  45:Core/Src/stm32g4xx_it.c **** 
  46:Core/Src/stm32g4xx_it.c **** /* Private variables ---------------------------------------------------------*/
  47:Core/Src/stm32g4xx_it.c **** /* USER CODE BEGIN PV */
  48:Core/Src/stm32g4xx_it.c **** uint8_t rec_status = PASSIVE;
  49:Core/Src/stm32g4xx_it.c **** extern uint8_t rx_data[12];
  50:Core/Src/stm32g4xx_it.c **** extern uint8_t gps_data[12];
  51:Core/Src/stm32g4xx_it.c **** /* USER CODE END PV */
  52:Core/Src/stm32g4xx_it.c **** 
  53:Core/Src/stm32g4xx_it.c **** /* Private function prototypes -----------------------------------------------*/
  54:Core/Src/stm32g4xx_it.c **** /* USER CODE BEGIN PFP */
  55:Core/Src/stm32g4xx_it.c **** 
  56:Core/Src/stm32g4xx_it.c **** /* USER CODE END PFP */
  57:Core/Src/stm32g4xx_it.c **** 
  58:Core/Src/stm32g4xx_it.c **** /* Private user code ---------------------------------------------------------*/
  59:Core/Src/stm32g4xx_it.c **** /* USER CODE BEGIN 0 */
  60:Core/Src/stm32g4xx_it.c **** 
  61:Core/Src/stm32g4xx_it.c **** /* USER CODE END 0 */
  62:Core/Src/stm32g4xx_it.c **** 
  63:Core/Src/stm32g4xx_it.c **** /* External variables --------------------------------------------------------*/
  64:Core/Src/stm32g4xx_it.c **** 
  65:Core/Src/stm32g4xx_it.c **** /* USER CODE BEGIN EV */
  66:Core/Src/stm32g4xx_it.c **** extern SPI_HandleTypeDef hspi3;
  67:Core/Src/stm32g4xx_it.c **** /* USER CODE END EV */
  68:Core/Src/stm32g4xx_it.c **** 
  69:Core/Src/stm32g4xx_it.c **** /******************************************************************************/
  70:Core/Src/stm32g4xx_it.c **** /*           Cortex-M4 Processor Interruption and Exception Handlers          */
  71:Core/Src/stm32g4xx_it.c **** /******************************************************************************/
  72:Core/Src/stm32g4xx_it.c **** /**
  73:Core/Src/stm32g4xx_it.c ****   * @brief This function handles Non maskable interrupt.
  74:Core/Src/stm32g4xx_it.c ****   */
  75:Core/Src/stm32g4xx_it.c **** void NMI_Handler(void)
  76:Core/Src/stm32g4xx_it.c **** {
  29              		.loc 1 76 1 view -0
  30              		.cfi_startproc
  31              		@ Volatile: function does not return.
  32              		@ args = 0, pretend = 0, frame = 0
  33              		@ frame_needed = 0, uses_anonymous_args = 0
  34              		@ link register save eliminated.
  35              	.L2:
  77:Core/Src/stm32g4xx_it.c ****   /* USER CODE BEGIN NonMaskableInt_IRQn 0 */
  78:Core/Src/stm32g4xx_it.c **** 
  79:Core/Src/stm32g4xx_it.c ****   /* USER CODE END NonMaskableInt_IRQn 0 */
  80:Core/Src/stm32g4xx_it.c ****   /* USER CODE BEGIN NonMaskableInt_IRQn 1 */
ARM GAS  C:\Users\vmyhr\AppData\Local\Temp\cc8Ewmnn.s 			page 3


  81:Core/Src/stm32g4xx_it.c ****   while (1)
  36              		.loc 1 81 3 view .LVU1
  82:Core/Src/stm32g4xx_it.c ****   {
  83:Core/Src/stm32g4xx_it.c ****   }
  37              		.loc 1 83 3 view .LVU2
  81:Core/Src/stm32g4xx_it.c ****   {
  38              		.loc 1 81 9 view .LVU3
  39 0000 FEE7     		b	.L2
  40              		.cfi_endproc
  41              	.LFE132:
  43              		.section	.text.HardFault_Handler,"ax",%progbits
  44              		.align	1
  45              		.global	HardFault_Handler
  46              		.syntax unified
  47              		.thumb
  48              		.thumb_func
  50              	HardFault_Handler:
  51              	.LFB133:
  84:Core/Src/stm32g4xx_it.c ****   /* USER CODE END NonMaskableInt_IRQn 1 */
  85:Core/Src/stm32g4xx_it.c **** }
  86:Core/Src/stm32g4xx_it.c **** 
  87:Core/Src/stm32g4xx_it.c **** /**
  88:Core/Src/stm32g4xx_it.c ****   * @brief This function handles Hard fault interrupt.
  89:Core/Src/stm32g4xx_it.c ****   */
  90:Core/Src/stm32g4xx_it.c **** void HardFault_Handler(void)
  91:Core/Src/stm32g4xx_it.c **** {
  52              		.loc 1 91 1 view -0
  53              		.cfi_startproc
  54              		@ Volatile: function does not return.
  55              		@ args = 0, pretend = 0, frame = 0
  56              		@ frame_needed = 0, uses_anonymous_args = 0
  57              		@ link register save eliminated.
  58              	.L4:
  92:Core/Src/stm32g4xx_it.c ****   /* USER CODE BEGIN HardFault_IRQn 0 */
  93:Core/Src/stm32g4xx_it.c **** 
  94:Core/Src/stm32g4xx_it.c ****   /* USER CODE END HardFault_IRQn 0 */
  95:Core/Src/stm32g4xx_it.c ****   while (1)
  59              		.loc 1 95 3 view .LVU5
  96:Core/Src/stm32g4xx_it.c ****   {
  97:Core/Src/stm32g4xx_it.c ****     /* USER CODE BEGIN W1_HardFault_IRQn 0 */
  98:Core/Src/stm32g4xx_it.c ****     /* USER CODE END W1_HardFault_IRQn 0 */
  99:Core/Src/stm32g4xx_it.c ****   }
  60              		.loc 1 99 3 view .LVU6
  95:Core/Src/stm32g4xx_it.c ****   {
  61              		.loc 1 95 9 view .LVU7
  62 0000 FEE7     		b	.L4
  63              		.cfi_endproc
  64              	.LFE133:
  66              		.section	.text.MemManage_Handler,"ax",%progbits
  67              		.align	1
  68              		.global	MemManage_Handler
  69              		.syntax unified
  70              		.thumb
  71              		.thumb_func
  73              	MemManage_Handler:
  74              	.LFB134:
 100:Core/Src/stm32g4xx_it.c **** }
ARM GAS  C:\Users\vmyhr\AppData\Local\Temp\cc8Ewmnn.s 			page 4


 101:Core/Src/stm32g4xx_it.c **** 
 102:Core/Src/stm32g4xx_it.c **** /**
 103:Core/Src/stm32g4xx_it.c ****   * @brief This function handles Memory management fault.
 104:Core/Src/stm32g4xx_it.c ****   */
 105:Core/Src/stm32g4xx_it.c **** void MemManage_Handler(void)
 106:Core/Src/stm32g4xx_it.c **** {
  75              		.loc 1 106 1 view -0
  76              		.cfi_startproc
  77              		@ Volatile: function does not return.
  78              		@ args = 0, pretend = 0, frame = 0
  79              		@ frame_needed = 0, uses_anonymous_args = 0
  80              		@ link register save eliminated.
  81              	.L6:
 107:Core/Src/stm32g4xx_it.c ****   /* USER CODE BEGIN MemoryManagement_IRQn 0 */
 108:Core/Src/stm32g4xx_it.c **** 
 109:Core/Src/stm32g4xx_it.c ****   /* USER CODE END MemoryManagement_IRQn 0 */
 110:Core/Src/stm32g4xx_it.c ****   while (1)
  82              		.loc 1 110 3 view .LVU9
 111:Core/Src/stm32g4xx_it.c ****   {
 112:Core/Src/stm32g4xx_it.c ****     /* USER CODE BEGIN W1_MemoryManagement_IRQn 0 */
 113:Core/Src/stm32g4xx_it.c ****     /* USER CODE END W1_MemoryManagement_IRQn 0 */
 114:Core/Src/stm32g4xx_it.c ****   }
  83              		.loc 1 114 3 view .LVU10
 110:Core/Src/stm32g4xx_it.c ****   {
  84              		.loc 1 110 9 view .LVU11
  85 0000 FEE7     		b	.L6
  86              		.cfi_endproc
  87              	.LFE134:
  89              		.section	.text.BusFault_Handler,"ax",%progbits
  90              		.align	1
  91              		.global	BusFault_Handler
  92              		.syntax unified
  93              		.thumb
  94              		.thumb_func
  96              	BusFault_Handler:
  97              	.LFB135:
 115:Core/Src/stm32g4xx_it.c **** }
 116:Core/Src/stm32g4xx_it.c **** 
 117:Core/Src/stm32g4xx_it.c **** /**
 118:Core/Src/stm32g4xx_it.c ****   * @brief This function handles Prefetch fault, memory access fault.
 119:Core/Src/stm32g4xx_it.c ****   */
 120:Core/Src/stm32g4xx_it.c **** void BusFault_Handler(void)
 121:Core/Src/stm32g4xx_it.c **** {
  98              		.loc 1 121 1 view -0
  99              		.cfi_startproc
 100              		@ Volatile: function does not return.
 101              		@ args = 0, pretend = 0, frame = 0
 102              		@ frame_needed = 0, uses_anonymous_args = 0
 103              		@ link register save eliminated.
 104              	.L8:
 122:Core/Src/stm32g4xx_it.c ****   /* USER CODE BEGIN BusFault_IRQn 0 */
 123:Core/Src/stm32g4xx_it.c **** 
 124:Core/Src/stm32g4xx_it.c ****   /* USER CODE END BusFault_IRQn 0 */
 125:Core/Src/stm32g4xx_it.c ****   while (1)
 105              		.loc 1 125 3 view .LVU13
 126:Core/Src/stm32g4xx_it.c ****   {
 127:Core/Src/stm32g4xx_it.c ****     /* USER CODE BEGIN W1_BusFault_IRQn 0 */
ARM GAS  C:\Users\vmyhr\AppData\Local\Temp\cc8Ewmnn.s 			page 5


 128:Core/Src/stm32g4xx_it.c ****     /* USER CODE END W1_BusFault_IRQn 0 */
 129:Core/Src/stm32g4xx_it.c ****   }
 106              		.loc 1 129 3 view .LVU14
 125:Core/Src/stm32g4xx_it.c ****   {
 107              		.loc 1 125 9 view .LVU15
 108 0000 FEE7     		b	.L8
 109              		.cfi_endproc
 110              	.LFE135:
 112              		.section	.text.UsageFault_Handler,"ax",%progbits
 113              		.align	1
 114              		.global	UsageFault_Handler
 115              		.syntax unified
 116              		.thumb
 117              		.thumb_func
 119              	UsageFault_Handler:
 120              	.LFB136:
 130:Core/Src/stm32g4xx_it.c **** }
 131:Core/Src/stm32g4xx_it.c **** 
 132:Core/Src/stm32g4xx_it.c **** /**
 133:Core/Src/stm32g4xx_it.c ****   * @brief This function handles Undefined instruction or illegal state.
 134:Core/Src/stm32g4xx_it.c ****   */
 135:Core/Src/stm32g4xx_it.c **** void UsageFault_Handler(void)
 136:Core/Src/stm32g4xx_it.c **** {
 121              		.loc 1 136 1 view -0
 122              		.cfi_startproc
 123              		@ Volatile: function does not return.
 124              		@ args = 0, pretend = 0, frame = 0
 125              		@ frame_needed = 0, uses_anonymous_args = 0
 126              		@ link register save eliminated.
 127              	.L10:
 137:Core/Src/stm32g4xx_it.c ****   /* USER CODE BEGIN UsageFault_IRQn 0 */
 138:Core/Src/stm32g4xx_it.c **** 
 139:Core/Src/stm32g4xx_it.c ****   /* USER CODE END UsageFault_IRQn 0 */
 140:Core/Src/stm32g4xx_it.c ****   while (1)
 128              		.loc 1 140 3 view .LVU17
 141:Core/Src/stm32g4xx_it.c ****   {
 142:Core/Src/stm32g4xx_it.c ****     /* USER CODE BEGIN W1_UsageFault_IRQn 0 */
 143:Core/Src/stm32g4xx_it.c ****     /* USER CODE END W1_UsageFault_IRQn 0 */
 144:Core/Src/stm32g4xx_it.c ****   }
 129              		.loc 1 144 3 view .LVU18
 140:Core/Src/stm32g4xx_it.c ****   {
 130              		.loc 1 140 9 view .LVU19
 131 0000 FEE7     		b	.L10
 132              		.cfi_endproc
 133              	.LFE136:
 135              		.section	.text.SVC_Handler,"ax",%progbits
 136              		.align	1
 137              		.global	SVC_Handler
 138              		.syntax unified
 139              		.thumb
 140              		.thumb_func
 142              	SVC_Handler:
 143              	.LFB137:
 145:Core/Src/stm32g4xx_it.c **** }
 146:Core/Src/stm32g4xx_it.c **** 
 147:Core/Src/stm32g4xx_it.c **** /**
 148:Core/Src/stm32g4xx_it.c ****   * @brief This function handles System service call via SWI instruction.
ARM GAS  C:\Users\vmyhr\AppData\Local\Temp\cc8Ewmnn.s 			page 6


 149:Core/Src/stm32g4xx_it.c ****   */
 150:Core/Src/stm32g4xx_it.c **** void SVC_Handler(void)
 151:Core/Src/stm32g4xx_it.c **** {
 144              		.loc 1 151 1 view -0
 145              		.cfi_startproc
 146              		@ args = 0, pretend = 0, frame = 0
 147              		@ frame_needed = 0, uses_anonymous_args = 0
 148              		@ link register save eliminated.
 152:Core/Src/stm32g4xx_it.c ****   /* USER CODE BEGIN SVCall_IRQn 0 */
 153:Core/Src/stm32g4xx_it.c **** 
 154:Core/Src/stm32g4xx_it.c ****   /* USER CODE END SVCall_IRQn 0 */
 155:Core/Src/stm32g4xx_it.c ****   /* USER CODE BEGIN SVCall_IRQn 1 */
 156:Core/Src/stm32g4xx_it.c **** 
 157:Core/Src/stm32g4xx_it.c ****   /* USER CODE END SVCall_IRQn 1 */
 158:Core/Src/stm32g4xx_it.c **** }
 149              		.loc 1 158 1 view .LVU21
 150 0000 7047     		bx	lr
 151              		.cfi_endproc
 152              	.LFE137:
 154              		.section	.text.DebugMon_Handler,"ax",%progbits
 155              		.align	1
 156              		.global	DebugMon_Handler
 157              		.syntax unified
 158              		.thumb
 159              		.thumb_func
 161              	DebugMon_Handler:
 162              	.LFB138:
 159:Core/Src/stm32g4xx_it.c **** 
 160:Core/Src/stm32g4xx_it.c **** /**
 161:Core/Src/stm32g4xx_it.c ****   * @brief This function handles Debug monitor.
 162:Core/Src/stm32g4xx_it.c ****   */
 163:Core/Src/stm32g4xx_it.c **** void DebugMon_Handler(void)
 164:Core/Src/stm32g4xx_it.c **** {
 163              		.loc 1 164 1 view -0
 164              		.cfi_startproc
 165              		@ args = 0, pretend = 0, frame = 0
 166              		@ frame_needed = 0, uses_anonymous_args = 0
 167              		@ link register save eliminated.
 165:Core/Src/stm32g4xx_it.c ****   /* USER CODE BEGIN DebugMonitor_IRQn 0 */
 166:Core/Src/stm32g4xx_it.c **** 
 167:Core/Src/stm32g4xx_it.c ****   /* USER CODE END DebugMonitor_IRQn 0 */
 168:Core/Src/stm32g4xx_it.c ****   /* USER CODE BEGIN DebugMonitor_IRQn 1 */
 169:Core/Src/stm32g4xx_it.c **** 
 170:Core/Src/stm32g4xx_it.c ****   /* USER CODE END DebugMonitor_IRQn 1 */
 171:Core/Src/stm32g4xx_it.c **** }
 168              		.loc 1 171 1 view .LVU23
 169 0000 7047     		bx	lr
 170              		.cfi_endproc
 171              	.LFE138:
 173              		.section	.text.PendSV_Handler,"ax",%progbits
 174              		.align	1
 175              		.global	PendSV_Handler
 176              		.syntax unified
 177              		.thumb
 178              		.thumb_func
 180              	PendSV_Handler:
 181              	.LFB139:
ARM GAS  C:\Users\vmyhr\AppData\Local\Temp\cc8Ewmnn.s 			page 7


 172:Core/Src/stm32g4xx_it.c **** 
 173:Core/Src/stm32g4xx_it.c **** /**
 174:Core/Src/stm32g4xx_it.c ****   * @brief This function handles Pendable request for system service.
 175:Core/Src/stm32g4xx_it.c ****   */
 176:Core/Src/stm32g4xx_it.c **** void PendSV_Handler(void)
 177:Core/Src/stm32g4xx_it.c **** {
 182              		.loc 1 177 1 view -0
 183              		.cfi_startproc
 184              		@ args = 0, pretend = 0, frame = 0
 185              		@ frame_needed = 0, uses_anonymous_args = 0
 186              		@ link register save eliminated.
 178:Core/Src/stm32g4xx_it.c ****   /* USER CODE BEGIN PendSV_IRQn 0 */
 179:Core/Src/stm32g4xx_it.c **** 
 180:Core/Src/stm32g4xx_it.c ****   /* USER CODE END PendSV_IRQn 0 */
 181:Core/Src/stm32g4xx_it.c ****   /* USER CODE BEGIN PendSV_IRQn 1 */
 182:Core/Src/stm32g4xx_it.c **** 
 183:Core/Src/stm32g4xx_it.c ****   /* USER CODE END PendSV_IRQn 1 */
 184:Core/Src/stm32g4xx_it.c **** }
 187              		.loc 1 184 1 view .LVU25
 188 0000 7047     		bx	lr
 189              		.cfi_endproc
 190              	.LFE139:
 192              		.section	.text.SysTick_Handler,"ax",%progbits
 193              		.align	1
 194              		.global	SysTick_Handler
 195              		.syntax unified
 196              		.thumb
 197              		.thumb_func
 199              	SysTick_Handler:
 200              	.LFB140:
 185:Core/Src/stm32g4xx_it.c **** 
 186:Core/Src/stm32g4xx_it.c **** /**
 187:Core/Src/stm32g4xx_it.c ****   * @brief This function handles System tick timer.
 188:Core/Src/stm32g4xx_it.c ****   */
 189:Core/Src/stm32g4xx_it.c **** void SysTick_Handler(void)
 190:Core/Src/stm32g4xx_it.c **** {
 201              		.loc 1 190 1 view -0
 202              		.cfi_startproc
 203              		@ args = 0, pretend = 0, frame = 0
 204              		@ frame_needed = 0, uses_anonymous_args = 0
 205 0000 08B5     		push	{r3, lr}
 206              		.cfi_def_cfa_offset 8
 207              		.cfi_offset 3, -8
 208              		.cfi_offset 14, -4
 191:Core/Src/stm32g4xx_it.c ****   /* USER CODE BEGIN SysTick_IRQn 0 */
 192:Core/Src/stm32g4xx_it.c **** 
 193:Core/Src/stm32g4xx_it.c ****   /* USER CODE END SysTick_IRQn 0 */
 194:Core/Src/stm32g4xx_it.c ****   HAL_IncTick();
 209              		.loc 1 194 3 view .LVU27
 210 0002 FFF7FEFF 		bl	HAL_IncTick
 211              	.LVL0:
 195:Core/Src/stm32g4xx_it.c ****   /* USER CODE BEGIN SysTick_IRQn 1 */
 196:Core/Src/stm32g4xx_it.c **** 
 197:Core/Src/stm32g4xx_it.c ****   /* USER CODE END SysTick_IRQn 1 */
 198:Core/Src/stm32g4xx_it.c **** }
 212              		.loc 1 198 1 is_stmt 0 view .LVU28
 213 0006 08BD     		pop	{r3, pc}
ARM GAS  C:\Users\vmyhr\AppData\Local\Temp\cc8Ewmnn.s 			page 8


 214              		.cfi_endproc
 215              	.LFE140:
 217              		.section	.text.EXTI15_10_IRQHandler,"ax",%progbits
 218              		.align	1
 219              		.global	EXTI15_10_IRQHandler
 220              		.syntax unified
 221              		.thumb
 222              		.thumb_func
 224              	EXTI15_10_IRQHandler:
 225              	.LFB141:
 199:Core/Src/stm32g4xx_it.c **** 
 200:Core/Src/stm32g4xx_it.c **** /******************************************************************************/
 201:Core/Src/stm32g4xx_it.c **** /* STM32G4xx Peripheral Interrupt Handlers                                    */
 202:Core/Src/stm32g4xx_it.c **** /* Add here the Interrupt Handlers for the used peripherals.                  */
 203:Core/Src/stm32g4xx_it.c **** /* For the available peripheral interrupt handler names,                      */
 204:Core/Src/stm32g4xx_it.c **** /* please refer to the startup file (startup_stm32g4xx.s).                    */
 205:Core/Src/stm32g4xx_it.c **** /******************************************************************************/
 206:Core/Src/stm32g4xx_it.c **** 
 207:Core/Src/stm32g4xx_it.c **** /**
 208:Core/Src/stm32g4xx_it.c ****   * @brief This function handles EXTI line[15:10] interrupts.
 209:Core/Src/stm32g4xx_it.c ****   */
 210:Core/Src/stm32g4xx_it.c **** void EXTI15_10_IRQHandler(void)
 211:Core/Src/stm32g4xx_it.c **** {
 226              		.loc 1 211 1 is_stmt 1 view -0
 227              		.cfi_startproc
 228              		@ args = 0, pretend = 0, frame = 0
 229              		@ frame_needed = 0, uses_anonymous_args = 0
 230 0000 10B5     		push	{r4, lr}
 231              		.cfi_def_cfa_offset 8
 232              		.cfi_offset 4, -8
 233              		.cfi_offset 14, -4
 234 0002 82B0     		sub	sp, sp, #8
 235              		.cfi_def_cfa_offset 16
 212:Core/Src/stm32g4xx_it.c ****   /* USER CODE BEGIN EXTI15_10_IRQn 0 */
 213:Core/Src/stm32g4xx_it.c **** 
 214:Core/Src/stm32g4xx_it.c ****   /* USER CODE END EXTI15_10_IRQn 0 */
 215:Core/Src/stm32g4xx_it.c ****   HAL_GPIO_EXTI_IRQHandler(CS_Pin);
 236              		.loc 1 215 3 view .LVU30
 237 0004 4FF40060 		mov	r0, #2048
 238 0008 FFF7FEFF 		bl	HAL_GPIO_EXTI_IRQHandler
 239              	.LVL1:
 216:Core/Src/stm32g4xx_it.c ****   /* USER CODE BEGIN EXTI15_10_IRQn 1 */
 217:Core/Src/stm32g4xx_it.c **** 
 218:Core/Src/stm32g4xx_it.c ****     // HAL_SPI_Init(&hspi3);
 219:Core/Src/stm32g4xx_it.c **** 
 220:Core/Src/stm32g4xx_it.c ****     HAL_SPI_TransmitReceive(&hspi3, gps_data, rx_data, 12, 1000);
 240              		.loc 1 220 5 view .LVU31
 241 000c 0B4C     		ldr	r4, .L21
 242 000e 4FF47A73 		mov	r3, #1000
 243 0012 0093     		str	r3, [sp]
 244 0014 0C23     		movs	r3, #12
 245 0016 2246     		mov	r2, r4
 246 0018 0949     		ldr	r1, .L21+4
 247 001a 0A48     		ldr	r0, .L21+8
 248 001c FFF7FEFF 		bl	HAL_SPI_TransmitReceive
 249              	.LVL2:
 221:Core/Src/stm32g4xx_it.c ****     // SPI_TransmitReceive(hspi3.Instance, gps_data, rx_data, 12);
ARM GAS  C:\Users\vmyhr\AppData\Local\Temp\cc8Ewmnn.s 			page 9


 222:Core/Src/stm32g4xx_it.c **** 
 223:Core/Src/stm32g4xx_it.c ****     switch (rx_data[0])
 250              		.loc 1 223 5 view .LVU32
 251              		.loc 1 223 20 is_stmt 0 view .LVU33
 252 0020 2378     		ldrb	r3, [r4]	@ zero_extendqisi2
 253              		.loc 1 223 5 view .LVU34
 254 0022 C52B     		cmp	r3, #197
 255 0024 05D0     		beq	.L17
 256 0026 C92B     		cmp	r3, #201
 257 0028 06D1     		bne	.L16
 224:Core/Src/stm32g4xx_it.c ****     {
 225:Core/Src/stm32g4xx_it.c ****     case RELASE_DROUGE_CHUTE:
 226:Core/Src/stm32g4xx_it.c ****       gps_data[0] = SEPARATION; // Make logic for seperation
 227:Core/Src/stm32g4xx_it.c ****       break;
 228:Core/Src/stm32g4xx_it.c **** 
 229:Core/Src/stm32g4xx_it.c ****     case RELEASE_MAIN_CHUTE:
 230:Core/Src/stm32g4xx_it.c ****       gps_data[0] = MAIN_CHUTE;
 258              		.loc 1 230 7 is_stmt 1 view .LVU35
 259              		.loc 1 230 19 is_stmt 0 view .LVU36
 260 002a 054B     		ldr	r3, .L21+4
 261 002c BC22     		movs	r2, #188
 262 002e 1A70     		strb	r2, [r3]
 231:Core/Src/stm32g4xx_it.c ****       break;
 263              		.loc 1 231 7 is_stmt 1 view .LVU37
 232:Core/Src/stm32g4xx_it.c **** 
 233:Core/Src/stm32g4xx_it.c ****     default:
 234:Core/Src/stm32g4xx_it.c ****       break;
 235:Core/Src/stm32g4xx_it.c ****     }
 236:Core/Src/stm32g4xx_it.c **** 
 237:Core/Src/stm32g4xx_it.c ****     // HAL_SPI_DeInit(&hspi3);
 238:Core/Src/stm32g4xx_it.c ****     
 239:Core/Src/stm32g4xx_it.c ****   /* USER CODE END EXTI15_10_IRQn 1 */
 240:Core/Src/stm32g4xx_it.c **** }
 264              		.loc 1 240 1 is_stmt 0 view .LVU38
 265 0030 02E0     		b	.L16
 266              	.L17:
 226:Core/Src/stm32g4xx_it.c ****       break;
 267              		.loc 1 226 7 is_stmt 1 view .LVU39
 226:Core/Src/stm32g4xx_it.c ****       break;
 268              		.loc 1 226 19 is_stmt 0 view .LVU40
 269 0032 034B     		ldr	r3, .L21+4
 270 0034 B322     		movs	r2, #179
 271 0036 1A70     		strb	r2, [r3]
 227:Core/Src/stm32g4xx_it.c **** 
 272              		.loc 1 227 7 is_stmt 1 view .LVU41
 273              	.L16:
 274              		.loc 1 240 1 is_stmt 0 view .LVU42
 275 0038 02B0     		add	sp, sp, #8
 276              		.cfi_def_cfa_offset 8
 277              		@ sp needed
 278 003a 10BD     		pop	{r4, pc}
 279              	.L22:
 280              		.align	2
 281              	.L21:
 282 003c 00000000 		.word	rx_data
 283 0040 00000000 		.word	gps_data
 284 0044 00000000 		.word	hspi3
ARM GAS  C:\Users\vmyhr\AppData\Local\Temp\cc8Ewmnn.s 			page 10


 285              		.cfi_endproc
 286              	.LFE141:
 288              		.global	rec_status
 289              		.section	.data.rec_status,"aw"
 292              	rec_status:
 293 0000 B0       		.byte	-80
 294              		.text
 295              	.Letext0:
 296              		.file 2 "C:/Users/vmyhr/AppData/Roaming/Code/User/globalStorage/bmd.stm32-for-vscode/@xpack-dev-to
 297              		.file 3 "C:/Users/vmyhr/AppData/Roaming/Code/User/globalStorage/bmd.stm32-for-vscode/@xpack-dev-to
 298              		.file 4 "Drivers/CMSIS/Device/ST/STM32G4xx/Include/stm32g431xx.h"
 299              		.file 5 "Drivers/STM32G4xx_HAL_Driver/Inc/stm32g4xx_hal_def.h"
 300              		.file 6 "Drivers/STM32G4xx_HAL_Driver/Inc/stm32g4xx_hal_dma.h"
 301              		.file 7 "Drivers/STM32G4xx_HAL_Driver/Inc/stm32g4xx_hal_spi.h"
 302              		.file 8 "Core/Inc/spi.h"
 303              		.file 9 "Drivers/STM32G4xx_HAL_Driver/Inc/stm32g4xx_hal_gpio.h"
 304              		.file 10 "Drivers/STM32G4xx_HAL_Driver/Inc/stm32g4xx_hal.h"
ARM GAS  C:\Users\vmyhr\AppData\Local\Temp\cc8Ewmnn.s 			page 11

