ARM GAS  C:\Users\John_\AppData\Local\Temp\cc4FQFzg.s 			page 1


   1              		.cpu cortex-m4
   2              		.arch armv7e-m
   3              		.fpu fpv4-sp-d16
   4              		.eabi_attribute 27, 1
   5              		.eabi_attribute 28, 1
   6              		.eabi_attribute 20, 1
   7              		.eabi_attribute 21, 1
   8              		.eabi_attribute 23, 3
   9              		.eabi_attribute 24, 1
  10              		.eabi_attribute 25, 1
  11              		.eabi_attribute 26, 1
  12              		.eabi_attribute 30, 1
  13              		.eabi_attribute 34, 1
  14              		.eabi_attribute 18, 4
  15              		.file	"ms5803.c"
  16              		.text
  17              	.Ltext0:
  18              		.cfi_sections	.debug_frame
  19              		.file 1 "Core/Src/ms5803.c"
  20              		.section	.text.MS5803_read,"ax",%progbits
  21              		.align	1
  22              		.global	MS5803_read
  23              		.syntax unified
  24              		.thumb
  25              		.thumb_func
  27              	MS5803_read:
  28              	.LVL0:
  29              	.LFB132:
   1:Core/Src/ms5803.c **** /*
   2:Core/Src/ms5803.c ****  * ms5803.c
   3:Core/Src/ms5803.c ****  *
   4:Core/Src/ms5803.c **** 
   5:Core/Src/ms5803.c ****  */
   6:Core/Src/ms5803.c **** 
   7:Core/Src/ms5803.c **** #include "ms5803.h"
   8:Core/Src/ms5803.c **** 
   9:Core/Src/ms5803.c **** /**
  10:Core/Src/ms5803.c ****  * @brief Reads from MS5803
  11:Core/Src/ms5803.c ****  * @param handle The I2C handle being used
  12:Core/Src/ms5803.c ****  * @param bufp The buffer to be read into
  13:Core/Src/ms5803.c ****  * @param len The length of the buffer in 8-bit increments
  14:Core/Src/ms5803.c ****  * @retval HAL Status
  15:Core/Src/ms5803.c ****  */
  16:Core/Src/ms5803.c **** HAL_StatusTypeDef MS5803_read(void *handle, uint8_t *bufp, uint16_t len) {
  30              		.loc 1 16 74 view -0
  31              		.cfi_startproc
  32              		@ args = 0, pretend = 0, frame = 0
  33              		@ frame_needed = 0, uses_anonymous_args = 0
  34              		.loc 1 16 74 is_stmt 0 view .LVU1
  35 0000 00B5     		push	{lr}
  36              		.cfi_def_cfa_offset 4
  37              		.cfi_offset 14, -4
  38 0002 83B0     		sub	sp, sp, #12
  39              		.cfi_def_cfa_offset 16
  40 0004 1346     		mov	r3, r2
  17:Core/Src/ms5803.c **** 	return HAL_I2C_Master_Receive(handle, MS5803_ADDR, bufp, len, 1000);
  41              		.loc 1 17 2 is_stmt 1 view .LVU2
ARM GAS  C:\Users\John_\AppData\Local\Temp\cc4FQFzg.s 			page 2


  42              		.loc 1 17 9 is_stmt 0 view .LVU3
  43 0006 4FF47A72 		mov	r2, #1000
  44              	.LVL1:
  45              		.loc 1 17 9 view .LVU4
  46 000a 0092     		str	r2, [sp]
  47 000c 0A46     		mov	r2, r1
  48 000e EC21     		movs	r1, #236
  49              	.LVL2:
  50              		.loc 1 17 9 view .LVU5
  51 0010 FFF7FEFF 		bl	HAL_I2C_Master_Receive
  52              	.LVL3:
  18:Core/Src/ms5803.c **** }
  53              		.loc 1 18 1 view .LVU6
  54 0014 03B0     		add	sp, sp, #12
  55              		.cfi_def_cfa_offset 4
  56              		@ sp needed
  57 0016 5DF804FB 		ldr	pc, [sp], #4
  58              		.cfi_endproc
  59              	.LFE132:
  61              		.section	.text.MS5803_write,"ax",%progbits
  62              		.align	1
  63              		.global	MS5803_write
  64              		.syntax unified
  65              		.thumb
  66              		.thumb_func
  68              	MS5803_write:
  69              	.LVL4:
  70              	.LFB133:
  19:Core/Src/ms5803.c **** 
  20:Core/Src/ms5803.c **** /**
  21:Core/Src/ms5803.c ****  * @brief Writes to MS5803
  22:Core/Src/ms5803.c ****  * @param handle The I2C handle being used
  23:Core/Src/ms5803.c ****  * @param bufp The buffer to read from
  24:Core/Src/ms5803.c ****  * @param len The length of the buffer in 8-bit increments
  25:Core/Src/ms5803.c ****  * @retval HAL Status
  26:Core/Src/ms5803.c ****  */
  27:Core/Src/ms5803.c **** HAL_StatusTypeDef MS5803_write(void *handle, uint8_t *bufp, uint16_t len) {
  71              		.loc 1 27 75 is_stmt 1 view -0
  72              		.cfi_startproc
  73              		@ args = 0, pretend = 0, frame = 0
  74              		@ frame_needed = 0, uses_anonymous_args = 0
  75              		.loc 1 27 75 is_stmt 0 view .LVU8
  76 0000 00B5     		push	{lr}
  77              		.cfi_def_cfa_offset 4
  78              		.cfi_offset 14, -4
  79 0002 83B0     		sub	sp, sp, #12
  80              		.cfi_def_cfa_offset 16
  81 0004 1346     		mov	r3, r2
  28:Core/Src/ms5803.c **** 	return HAL_I2C_Master_Transmit(handle, MS5803_ADDR, bufp, len, 1000);
  82              		.loc 1 28 2 is_stmt 1 view .LVU9
  83              		.loc 1 28 9 is_stmt 0 view .LVU10
  84 0006 4FF47A72 		mov	r2, #1000
  85              	.LVL5:
  86              		.loc 1 28 9 view .LVU11
  87 000a 0092     		str	r2, [sp]
  88 000c 0A46     		mov	r2, r1
  89 000e EC21     		movs	r1, #236
ARM GAS  C:\Users\John_\AppData\Local\Temp\cc4FQFzg.s 			page 3


  90              	.LVL6:
  91              		.loc 1 28 9 view .LVU12
  92 0010 FFF7FEFF 		bl	HAL_I2C_Master_Transmit
  93              	.LVL7:
  29:Core/Src/ms5803.c **** }
  94              		.loc 1 29 1 view .LVU13
  95 0014 03B0     		add	sp, sp, #12
  96              		.cfi_def_cfa_offset 4
  97              		@ sp needed
  98 0016 5DF804FB 		ldr	pc, [sp], #4
  99              		.cfi_endproc
 100              	.LFE133:
 102              		.section	.text.MS5803_reset,"ax",%progbits
 103              		.align	1
 104              		.global	MS5803_reset
 105              		.syntax unified
 106              		.thumb
 107              		.thumb_func
 109              	MS5803_reset:
 110              	.LVL8:
 111              	.LFB134:
  30:Core/Src/ms5803.c **** 
  31:Core/Src/ms5803.c **** /**
  32:Core/Src/ms5803.c ****  * @brief Resets the MS5803
  33:Core/Src/ms5803.c ****  * @param handle The I2C Handle being used
  34:Core/Src/ms5803.c ****  * @retval HAL Status
  35:Core/Src/ms5803.c ****  */
  36:Core/Src/ms5803.c **** HAL_StatusTypeDef MS5803_reset(I2C_HandleTypeDef *handle) {
 112              		.loc 1 36 59 is_stmt 1 view -0
 113              		.cfi_startproc
 114              		@ args = 0, pretend = 0, frame = 16
 115              		@ frame_needed = 0, uses_anonymous_args = 0
 116              		.loc 1 36 59 is_stmt 0 view .LVU15
 117 0000 10B5     		push	{r4, lr}
 118              		.cfi_def_cfa_offset 8
 119              		.cfi_offset 4, -8
 120              		.cfi_offset 14, -4
 121 0002 86B0     		sub	sp, sp, #24
 122              		.cfi_def_cfa_offset 32
  37:Core/Src/ms5803.c **** 	uint8_t buf[12];
 123              		.loc 1 37 2 is_stmt 1 view .LVU16
  38:Core/Src/ms5803.c **** 	buf[0] = MS5803_RESET;
 124              		.loc 1 38 2 view .LVU17
 125              		.loc 1 38 9 is_stmt 0 view .LVU18
 126 0004 1E22     		movs	r2, #30
 127 0006 8DF80C20 		strb	r2, [sp, #12]
  39:Core/Src/ms5803.c **** 	HAL_StatusTypeDef ret = HAL_I2C_Master_Transmit(handle, MS5803_ADDR, MS5803_RESET, 1, 1000);
 128              		.loc 1 39 2 is_stmt 1 view .LVU19
 129              		.loc 1 39 26 is_stmt 0 view .LVU20
 130 000a 4FF47A73 		mov	r3, #1000
 131 000e 0093     		str	r3, [sp]
 132 0010 0123     		movs	r3, #1
 133 0012 EC21     		movs	r1, #236
 134 0014 FFF7FEFF 		bl	HAL_I2C_Master_Transmit
 135              	.LVL9:
 136              		.loc 1 39 26 view .LVU21
 137 0018 0446     		mov	r4, r0
ARM GAS  C:\Users\John_\AppData\Local\Temp\cc4FQFzg.s 			page 4


 138              	.LVL10:
  40:Core/Src/ms5803.c **** 	HAL_Delay(3);
 139              		.loc 1 40 2 is_stmt 1 view .LVU22
 140 001a 0320     		movs	r0, #3
 141 001c FFF7FEFF 		bl	HAL_Delay
 142              	.LVL11:
  41:Core/Src/ms5803.c **** 	return ret;
 143              		.loc 1 41 2 view .LVU23
  42:Core/Src/ms5803.c **** }
 144              		.loc 1 42 1 is_stmt 0 view .LVU24
 145 0020 2046     		mov	r0, r4
 146 0022 06B0     		add	sp, sp, #24
 147              		.cfi_def_cfa_offset 8
 148              		@ sp needed
 149 0024 10BD     		pop	{r4, pc}
 150              		.loc 1 42 1 view .LVU25
 151              		.cfi_endproc
 152              	.LFE134:
 154              		.section	.text.MS5803_coeff,"ax",%progbits
 155              		.align	1
 156              		.global	MS5803_coeff
 157              		.syntax unified
 158              		.thumb
 159              		.thumb_func
 161              	MS5803_coeff:
 162              	.LVL12:
 163              	.LFB135:
  43:Core/Src/ms5803.c **** 
  44:Core/Src/ms5803.c **** /**
  45:Core/Src/ms5803.c ****  * @brief Gets the 6 Coefficients from the MS5803 and reads them into the MS5803_coefficient array.
  46:Core/Src/ms5803.c ****  * @param handle The I2C Handle being used
  47:Core/Src/ms5803.c ****  * @param coeff The pointer to the coefficient being read in to
  48:Core/Src/ms5803.c ****  * @param value The coefficient number
  49:Core/Src/ms5803.c ****  * @return HAL Status
  50:Core/Src/ms5803.c ****  */
  51:Core/Src/ms5803.c **** HAL_StatusTypeDef MS5803_coeff(void *handle, uint16_t *coeff, uint8_t value) {
 164              		.loc 1 51 78 is_stmt 1 view -0
 165              		.cfi_startproc
 166              		@ args = 0, pretend = 0, frame = 16
 167              		@ frame_needed = 0, uses_anonymous_args = 0
 168              		.loc 1 51 78 is_stmt 0 view .LVU27
 169 0000 30B5     		push	{r4, r5, lr}
 170              		.cfi_def_cfa_offset 12
 171              		.cfi_offset 4, -12
 172              		.cfi_offset 5, -8
 173              		.cfi_offset 14, -4
 174 0002 85B0     		sub	sp, sp, #20
 175              		.cfi_def_cfa_offset 32
 176 0004 0546     		mov	r5, r0
 177 0006 0C46     		mov	r4, r1
  52:Core/Src/ms5803.c **** 	uint8_t buf[12];
 178              		.loc 1 52 2 is_stmt 1 view .LVU28
  53:Core/Src/ms5803.c **** 	buf[0] = MS5803_PROM + (value << 1); //coefficient to read
 179              		.loc 1 53 2 view .LVU29
 180              		.loc 1 53 32 is_stmt 0 view .LVU30
 181 0008 5200     		lsls	r2, r2, #1
 182              	.LVL13:
ARM GAS  C:\Users\John_\AppData\Local\Temp\cc4FQFzg.s 			page 5


 183              		.loc 1 53 32 view .LVU31
 184 000a D2B2     		uxtb	r2, r2
 185              		.loc 1 53 23 view .LVU32
 186 000c 603A     		subs	r2, r2, #96
 187              		.loc 1 53 9 view .LVU33
 188 000e 8DF80420 		strb	r2, [sp, #4]
  54:Core/Src/ms5803.c **** 	HAL_StatusTypeDef x = MS5803_write(handle, buf, 1); //tell MS5803 that we want it
 189              		.loc 1 54 2 is_stmt 1 view .LVU34
 190              		.loc 1 54 24 is_stmt 0 view .LVU35
 191 0012 0122     		movs	r2, #1
 192 0014 01A9     		add	r1, sp, #4
 193              	.LVL14:
 194              		.loc 1 54 24 view .LVU36
 195 0016 FFF7FEFF 		bl	MS5803_write
 196              	.LVL15:
  55:Core/Src/ms5803.c **** 	HAL_Delay(2); //delay until it is ready
 197              		.loc 1 55 2 is_stmt 1 view .LVU37
 198 001a 0220     		movs	r0, #2
 199 001c FFF7FEFF 		bl	HAL_Delay
 200              	.LVL16:
  56:Core/Src/ms5803.c **** 	uint8_t c[2];
 201              		.loc 1 56 2 view .LVU38
  57:Core/Src/ms5803.c **** 	x = MS5803_read(handle, c, 2); //read the coefficient
 202              		.loc 1 57 2 view .LVU39
 203              		.loc 1 57 6 is_stmt 0 view .LVU40
 204 0020 0222     		movs	r2, #2
 205 0022 6946     		mov	r1, sp
 206 0024 2846     		mov	r0, r5
 207 0026 FFF7FEFF 		bl	MS5803_read
 208              	.LVL17:
  58:Core/Src/ms5803.c **** 	*coeff = (c[0] << 8) + c[1]; //turn the two 8-bit values into one coherent value.
 209              		.loc 1 58 2 is_stmt 1 view .LVU41
 210              		.loc 1 58 13 is_stmt 0 view .LVU42
 211 002a 9DF80020 		ldrb	r2, [sp]	@ zero_extendqisi2
 212              		.loc 1 58 26 view .LVU43
 213 002e 9DF80130 		ldrb	r3, [sp, #1]	@ zero_extendqisi2
 214              		.loc 1 58 23 view .LVU44
 215 0032 03EB0223 		add	r3, r3, r2, lsl #8
 216              		.loc 1 58 9 view .LVU45
 217 0036 2380     		strh	r3, [r4]	@ movhi
  59:Core/Src/ms5803.c **** 	return x;
 218              		.loc 1 59 2 is_stmt 1 view .LVU46
  60:Core/Src/ms5803.c **** }
 219              		.loc 1 60 1 is_stmt 0 view .LVU47
 220 0038 05B0     		add	sp, sp, #20
 221              		.cfi_def_cfa_offset 12
 222              		@ sp needed
 223 003a 30BD     		pop	{r4, r5, pc}
 224              		.loc 1 60 1 view .LVU48
 225              		.cfi_endproc
 226              	.LFE135:
 228              		.section	.text.MS5803_ADC,"ax",%progbits
 229              		.align	1
 230              		.global	MS5803_ADC
 231              		.syntax unified
 232              		.thumb
 233              		.thumb_func
ARM GAS  C:\Users\John_\AppData\Local\Temp\cc4FQFzg.s 			page 6


 235              	MS5803_ADC:
 236              	.LVL18:
 237              	.LFB136:
  61:Core/Src/ms5803.c **** 
  62:Core/Src/ms5803.c **** /**
  63:Core/Src/ms5803.c ****  * @brief Reads the MS5803 ADC
  64:Core/Src/ms5803.c ****  * @param handle The I2C Handle being used
  65:Core/Src/ms5803.c ****  * @param type The measurement type, chosen from measurement enum
  66:Core/Src/ms5803.c ****  * @param prec The precision to use, chosen from precision enum
  67:Core/Src/ms5803.c ****  * @retval Raw 24-bit data from the ADC
  68:Core/Src/ms5803.c ****  */
  69:Core/Src/ms5803.c **** uint32_t MS5803_ADC(void *handle, measurement type, precision prec) {
 238              		.loc 1 69 69 is_stmt 1 view -0
 239              		.cfi_startproc
 240              		@ args = 0, pretend = 0, frame = 24
 241              		@ frame_needed = 0, uses_anonymous_args = 0
 242              		.loc 1 69 69 is_stmt 0 view .LVU50
 243 0000 30B5     		push	{r4, r5, lr}
 244              		.cfi_def_cfa_offset 12
 245              		.cfi_offset 4, -12
 246              		.cfi_offset 5, -8
 247              		.cfi_offset 14, -4
 248 0002 87B0     		sub	sp, sp, #28
 249              		.cfi_def_cfa_offset 40
 250 0004 0546     		mov	r5, r0
 251 0006 1446     		mov	r4, r2
  70:Core/Src/ms5803.c **** 	uint32_t result;
 252              		.loc 1 70 2 is_stmt 1 view .LVU51
  71:Core/Src/ms5803.c **** 	uint8_t buf[12];
 253              		.loc 1 71 2 view .LVU52
  72:Core/Src/ms5803.c **** 	buf[0] = MS5803_ADC_CONV + type + prec; //tell the ADC to convert along with the precision and typ
 254              		.loc 1 72 2 view .LVU53
 255              		.loc 1 72 34 is_stmt 0 view .LVU54
 256 0008 1144     		add	r1, r1, r2
 257              	.LVL19:
 258              		.loc 1 72 34 view .LVU55
 259 000a 4031     		adds	r1, r1, #64
 260              		.loc 1 72 9 view .LVU56
 261 000c 8DF80C10 		strb	r1, [sp, #12]
  73:Core/Src/ms5803.c **** 	MS5803_write(handle, buf, 1);
 262              		.loc 1 73 2 is_stmt 1 view .LVU57
 263 0010 0122     		movs	r2, #1
 264              	.LVL20:
 265              		.loc 1 73 2 is_stmt 0 view .LVU58
 266 0012 03A9     		add	r1, sp, #12
 267 0014 FFF7FEFF 		bl	MS5803_write
 268              	.LVL21:
  74:Core/Src/ms5803.c **** 	HAL_Delay(1);
 269              		.loc 1 74 2 is_stmt 1 view .LVU59
 270 0018 0120     		movs	r0, #1
 271 001a FFF7FEFF 		bl	HAL_Delay
 272              	.LVL22:
  75:Core/Src/ms5803.c **** 	switch(prec) {
 273              		.loc 1 75 2 view .LVU60
 274 001e 082C     		cmp	r4, #8
 275 0020 15D8     		bhi	.L10
 276 0022 DFE804F0 		tbb	[pc, r4]
ARM GAS  C:\Users\John_\AppData\Local\Temp\cc4FQFzg.s 			page 7


 277              	.L12:
 278 0026 05       		.byte	(.L16-.L12)/2
 279 0027 14       		.byte	(.L10-.L12)/2
 280 0028 08       		.byte	(.L15-.L12)/2
 281 0029 14       		.byte	(.L10-.L12)/2
 282 002a 0B       		.byte	(.L14-.L12)/2
 283 002b 14       		.byte	(.L10-.L12)/2
 284 002c 0E       		.byte	(.L13-.L12)/2
 285 002d 14       		.byte	(.L10-.L12)/2
 286 002e 11       		.byte	(.L11-.L12)/2
 287 002f 00       		.p2align 1
 288              	.L16:
  76:Core/Src/ms5803.c **** 		case ADC_256: HAL_Delay(1);
 289              		.loc 1 76 17 view .LVU61
 290 0030 0120     		movs	r0, #1
 291 0032 FFF7FEFF 		bl	HAL_Delay
 292              	.LVL23:
 293              	.L15:
  77:Core/Src/ms5803.c **** 		case ADC_512: HAL_Delay(3);
 294              		.loc 1 77 17 view .LVU62
 295 0036 0320     		movs	r0, #3
 296 0038 FFF7FEFF 		bl	HAL_Delay
 297              	.LVL24:
 298              	.L14:
  78:Core/Src/ms5803.c **** 		case ADC_1024: HAL_Delay(4);
 299              		.loc 1 78 18 view .LVU63
 300 003c 0420     		movs	r0, #4
 301 003e FFF7FEFF 		bl	HAL_Delay
 302              	.LVL25:
 303              	.L13:
  79:Core/Src/ms5803.c **** 		case ADC_2048: HAL_Delay(6);
 304              		.loc 1 79 18 view .LVU64
 305 0042 0620     		movs	r0, #6
 306 0044 FFF7FEFF 		bl	HAL_Delay
 307              	.LVL26:
 308              	.L11:
  80:Core/Src/ms5803.c **** 		case ADC_4096: HAL_Delay(10); //Delay longer if higher precision, as conversion takes longer.
 309              		.loc 1 80 18 view .LVU65
 310 0048 0A20     		movs	r0, #10
 311 004a FFF7FEFF 		bl	HAL_Delay
 312              	.LVL27:
 313              	.L10:
  81:Core/Src/ms5803.c **** 	}
  82:Core/Src/ms5803.c **** 	buf[0] = MS5803_ADC_READ; //Tell the MS5803 that we want to read the ADC
 314              		.loc 1 82 2 view .LVU66
 315              		.loc 1 82 9 is_stmt 0 view .LVU67
 316 004e 0023     		movs	r3, #0
 317 0050 8DF80C30 		strb	r3, [sp, #12]
  83:Core/Src/ms5803.c **** 	MS5803_write(handle, buf, 1);
 318              		.loc 1 83 2 is_stmt 1 view .LVU68
 319 0054 0122     		movs	r2, #1
 320 0056 03A9     		add	r1, sp, #12
 321 0058 2846     		mov	r0, r5
 322 005a FFF7FEFF 		bl	MS5803_write
 323              	.LVL28:
  84:Core/Src/ms5803.c **** 	HAL_Delay(2);
 324              		.loc 1 84 2 view .LVU69
ARM GAS  C:\Users\John_\AppData\Local\Temp\cc4FQFzg.s 			page 8


 325 005e 0220     		movs	r0, #2
 326 0060 FFF7FEFF 		bl	HAL_Delay
 327              	.LVL29:
  85:Core/Src/ms5803.c **** 	uint8_t c[3];
 328              		.loc 1 85 2 view .LVU70
  86:Core/Src/ms5803.c **** 	volatile HAL_StatusTypeDef test = MS5803_read(handle, c, 3); //Read out the ADC
 329              		.loc 1 86 2 view .LVU71
 330              		.loc 1 86 36 is_stmt 0 view .LVU72
 331 0064 0322     		movs	r2, #3
 332 0066 02A9     		add	r1, sp, #8
 333 0068 2846     		mov	r0, r5
 334 006a FFF7FEFF 		bl	MS5803_read
 335              	.LVL30:
 336              		.loc 1 86 29 discriminator 1 view .LVU73
 337 006e 8DF80700 		strb	r0, [sp, #7]
  87:Core/Src/ms5803.c **** 
  88:Core/Src/ms5803.c **** 	result = (c[0] << 16) + (c[1] << 8) + c[2]; //Convert the three 8-bit values into one value.
 338              		.loc 1 88 2 is_stmt 1 view .LVU74
 339              		.loc 1 88 13 is_stmt 0 view .LVU75
 340 0072 9DF80820 		ldrb	r2, [sp, #8]	@ zero_extendqisi2
 341              		.loc 1 88 28 view .LVU76
 342 0076 9DF80930 		ldrb	r3, [sp, #9]	@ zero_extendqisi2
 343              		.loc 1 88 32 view .LVU77
 344 007a 1B02     		lsls	r3, r3, #8
 345              		.loc 1 88 24 view .LVU78
 346 007c 03EB0243 		add	r3, r3, r2, lsl #16
 347              		.loc 1 88 41 view .LVU79
 348 0080 9DF80A00 		ldrb	r0, [sp, #10]	@ zero_extendqisi2
 349              	.LVL31:
  89:Core/Src/ms5803.c **** 	return result;
 350              		.loc 1 89 2 is_stmt 1 view .LVU80
  90:Core/Src/ms5803.c **** }
 351              		.loc 1 90 1 is_stmt 0 view .LVU81
 352 0084 1844     		add	r0, r0, r3
 353              	.LVL32:
 354              		.loc 1 90 1 view .LVU82
 355 0086 07B0     		add	sp, sp, #28
 356              		.cfi_def_cfa_offset 12
 357              		@ sp needed
 358 0088 30BD     		pop	{r4, r5, pc}
 359              		.loc 1 90 1 view .LVU83
 360              		.cfi_endproc
 361              	.LFE136:
 363              		.section	.text.MS5803_get_values,"ax",%progbits
 364              		.align	1
 365              		.global	MS5803_get_values
 366              		.syntax unified
 367              		.thumb
 368              		.thumb_func
 370              	MS5803_get_values:
 371              	.LVL33:
 372              	.LFB137:
  91:Core/Src/ms5803.c **** 
  92:Core/Src/ms5803.c **** /**
  93:Core/Src/ms5803.c ****  * @brief Gets temperature and pressure values from the MS5803
  94:Core/Src/ms5803.c ****  * @param handle The I2C Handle being used
  95:Core/Src/ms5803.c ****  * @param prec The precision to be used
ARM GAS  C:\Users\John_\AppData\Local\Temp\cc4FQFzg.s 			page 9


  96:Core/Src/ms5803.c ****  * @param temperature The pointer to the temperature variable being read in to.
  97:Core/Src/ms5803.c ****  * @param pressure The pointer to the pressure variable being read in to.
  98:Core/Src/ms5803.c ****  */
  99:Core/Src/ms5803.c **** void MS5803_get_values(void *handle, precision prec, float *temperature, float *pressure) {
 373              		.loc 1 99 91 is_stmt 1 view -0
 374              		.cfi_startproc
 375              		@ args = 0, pretend = 0, frame = 0
 376              		@ frame_needed = 0, uses_anonymous_args = 0
 377              		.loc 1 99 91 is_stmt 0 view .LVU85
 378 0000 2DE9F041 		push	{r4, r5, r6, r7, r8, lr}
 379              		.cfi_def_cfa_offset 24
 380              		.cfi_offset 4, -24
 381              		.cfi_offset 5, -20
 382              		.cfi_offset 6, -16
 383              		.cfi_offset 7, -12
 384              		.cfi_offset 8, -8
 385              		.cfi_offset 14, -4
 386 0004 8046     		mov	r8, r0
 387 0006 0E46     		mov	r6, r1
 388 0008 1546     		mov	r5, r2
 389 000a 1C46     		mov	r4, r3
 100:Core/Src/ms5803.c **** 	uint32_t temperature_raw = MS5803_ADC(handle, TEMPERATURE, prec);
 390              		.loc 1 100 2 is_stmt 1 view .LVU86
 391              		.loc 1 100 29 is_stmt 0 view .LVU87
 392 000c 0A46     		mov	r2, r1
 393              	.LVL34:
 394              		.loc 1 100 29 view .LVU88
 395 000e 1021     		movs	r1, #16
 396              	.LVL35:
 397              		.loc 1 100 29 view .LVU89
 398 0010 FFF7FEFF 		bl	MS5803_ADC
 399              	.LVL36:
 400              		.loc 1 100 29 view .LVU90
 401 0014 0746     		mov	r7, r0
 402              	.LVL37:
 101:Core/Src/ms5803.c **** 	uint32_t pressure_raw = MS5803_ADC(handle, PRESSURE, prec); //get temperature and pressure raw val
 403              		.loc 1 101 2 is_stmt 1 view .LVU91
 404              		.loc 1 101 26 is_stmt 0 view .LVU92
 405 0016 3246     		mov	r2, r6
 406 0018 0021     		movs	r1, #0
 407 001a 4046     		mov	r0, r8
 408              	.LVL38:
 409              		.loc 1 101 26 view .LVU93
 410 001c FFF7FEFF 		bl	MS5803_ADC
 411              	.LVL39:
 102:Core/Src/ms5803.c **** 
 103:Core/Src/ms5803.c **** 	int32_t sub = MS5803_coefficient[4] * 256;
 412              		.loc 1 103 2 is_stmt 1 view .LVU94
 413              		.loc 1 103 34 is_stmt 0 view .LVU95
 414 0020 324B     		ldr	r3, .L34
 415 0022 1A89     		ldrh	r2, [r3, #8]
 416              	.LVL40:
 104:Core/Src/ms5803.c **** 	int32_t dT = temperature_raw - sub;
 417              		.loc 1 104 2 is_stmt 1 view .LVU96
 418              		.loc 1 104 31 is_stmt 0 view .LVU97
 419 0024 A7EB022E 		sub	lr, r7, r2, lsl #8
 420              	.LVL41:
ARM GAS  C:\Users\John_\AppData\Local\Temp\cc4FQFzg.s 			page 10


 105:Core/Src/ms5803.c **** 	int32_t temp = 2000 + (dT*MS5803_coefficient[5])/(8388608);
 421              		.loc 1 105 2 is_stmt 1 view .LVU98
 422              		.loc 1 105 46 is_stmt 0 view .LVU99
 423 0028 5B89     		ldrh	r3, [r3, #10]
 424              		.loc 1 105 27 view .LVU100
 425 002a 0EFB03F3 		mul	r3, lr, r3
 426              		.loc 1 105 50 view .LVU101
 427 002e 002B     		cmp	r3, #0
 428 0030 48DB     		blt	.L30
 429              	.L24:
 430 0032 DB15     		asrs	r3, r3, #23
 431              		.loc 1 105 10 view .LVU102
 432 0034 03F5FA63 		add	r3, r3, #2000
 433              	.LVL42:
 106:Core/Src/ms5803.c **** 	*temperature = temp/100.f; //determine temperature according to datasheet
 434              		.loc 1 106 2 is_stmt 1 view .LVU103
 435              		.loc 1 106 21 is_stmt 0 view .LVU104
 436 0038 07EE903A 		vmov	s15, r3	@ int
 437 003c F8EEE77A 		vcvt.f32.s32	s15, s15
 438 0040 DFED2B6A 		vldr.32	s13, .L34+4
 439 0044 87EEA67A 		vdiv.f32	s14, s15, s13
 440              		.loc 1 106 15 view .LVU105
 441 0048 85ED007A 		vstr.32	s14, [r5]
 107:Core/Src/ms5803.c **** 
 108:Core/Src/ms5803.c **** 	int64_t add = ((int64_t)MS5803_coefficient[3])*((int64_t)(temperature_raw - sub))/128;
 442              		.loc 1 108 2 is_stmt 1 view .LVU106
 443              		.loc 1 108 44 is_stmt 0 view .LVU107
 444 004c 274B     		ldr	r3, .L34
 445              	.LVL43:
 446              		.loc 1 108 44 view .LVU108
 447 004e DB88     		ldrh	r3, [r3, #6]
 448              		.loc 1 108 10 view .LVU109
 449 0050 A3FB0E32 		umull	r3, r2, r3, lr
 450              	.LVL44:
 451              		.loc 1 108 10 view .LVU110
 452 0054 DB09     		lsrs	r3, r3, #7
 453 0056 43EA4263 		orr	r3, r3, r2, lsl #25
 454 005a D211     		asrs	r2, r2, #7
 455              	.LVL45:
 109:Core/Src/ms5803.c **** 	int64_t OFF = ((int64_t)MS5803_coefficient[1])*65536+add;
 456              		.loc 1 109 2 is_stmt 1 view .LVU111
 457              		.loc 1 109 44 is_stmt 0 view .LVU112
 458 005c 234D     		ldr	r5, .L34
 459              	.LVL46:
 460              		.loc 1 109 44 view .LVU113
 461 005e B5F802C0 		ldrh	ip, [r5, #2]
 462              		.loc 1 109 48 view .LVU114
 463 0062 4FEA0C4C 		lsl	ip, ip, #16
 464              		.loc 1 109 10 view .LVU115
 465 0066 1CEB030C 		adds	ip, ip, r3
 466 006a 42F10003 		adc	r3, r2, #0
 467              	.LVL47:
 110:Core/Src/ms5803.c **** 	int64_t SENS = MS5803_coefficient[0] * (32768) + (MS5803_coefficient[2]*dT)/(256);
 468              		.loc 1 110 2 is_stmt 1 view .LVU116
 469              		.loc 1 110 35 is_stmt 0 view .LVU117
 470 006e 2988     		ldrh	r1, [r5]
 471              		.loc 1 110 39 view .LVU118
ARM GAS  C:\Users\John_\AppData\Local\Temp\cc4FQFzg.s 			page 11


 472 0070 C903     		lsls	r1, r1, #15
 473              		.loc 1 110 70 view .LVU119
 474 0072 AA88     		ldrh	r2, [r5, #4]
 475              	.LVL48:
 476              		.loc 1 110 73 view .LVU120
 477 0074 0EFB02F2 		mul	r2, lr, r2
 478              		.loc 1 110 77 view .LVU121
 479 0078 002A     		cmp	r2, #0
 480 007a 29DB     		blt	.L31
 481              	.L26:
 482              		.loc 1 110 49 view .LVU122
 483 007c 01EB2221 		add	r1, r1, r2, asr #8
 484              		.loc 1 110 10 view .LVU123
 485 0080 CD17     		asrs	r5, r1, #31
 486              	.LVL49:
 111:Core/Src/ms5803.c **** 	int64_t mult = pressure_raw*SENS/2097152;
 487              		.loc 1 111 2 is_stmt 1 view .LVU124
 488              		.loc 1 111 29 is_stmt 0 view .LVU125
 489 0082 A0FB0112 		umull	r1, r2, r0, r1
 490              	.LVL50:
 491              		.loc 1 111 29 view .LVU126
 492 0086 00FB0522 		mla	r2, r0, r5, r2
 493              		.loc 1 111 10 view .LVU127
 494 008a 1046     		mov	r0, r2
 495              	.LVL51:
 496              		.loc 1 111 10 view .LVU128
 497 008c 002A     		cmp	r2, #0
 498 008e 21DB     		blt	.L32
 499              	.L27:
 500 0090 4A0D     		lsrs	r2, r1, #21
 501 0092 42EAC022 		orr	r2, r2, r0, lsl #11
 502 0096 4015     		asrs	r0, r0, #21
 503              	.LVL52:
 112:Core/Src/ms5803.c **** 	int32_t pres = (mult-OFF)/32768;
 504              		.loc 1 112 2 is_stmt 1 view .LVU129
 505              		.loc 1 112 22 is_stmt 0 view .LVU130
 506 0098 B2EB0C02 		subs	r2, r2, ip
 507              	.LVL53:
 508              		.loc 1 112 22 view .LVU131
 509 009c 60EB0303 		sbc	r3, r0, r3
 510              	.LVL54:
 511              		.loc 1 112 27 view .LVU132
 512 00a0 1946     		mov	r1, r3
 513 00a2 002B     		cmp	r3, #0
 514 00a4 1BDB     		blt	.L33
 515              	.L28:
 516 00a6 D20B     		lsrs	r2, r2, #15
 517 00a8 42EA4142 		orr	r2, r2, r1, lsl #17
 518              	.LVL55:
 113:Core/Src/ms5803.c **** 	*pressure = pres/10.0f; //determine pressure according to datasheet
 519              		.loc 1 113 2 is_stmt 1 view .LVU133
 520              		.loc 1 113 18 is_stmt 0 view .LVU134
 521 00ac 07EE902A 		vmov	s15, r2	@ int
 522 00b0 F8EEE77A 		vcvt.f32.s32	s15, s15
 523 00b4 F2EE046A 		vmov.f32	s13, #1.0e+1
 524 00b8 87EEA67A 		vdiv.f32	s14, s15, s13
 525              		.loc 1 113 12 view .LVU135
ARM GAS  C:\Users\John_\AppData\Local\Temp\cc4FQFzg.s 			page 12


 526 00bc 84ED007A 		vstr.32	s14, [r4]
 527              	.LVL56:
 114:Core/Src/ms5803.c **** }...
 528              		.loc 1 114 1 view .LVU136
 529 00c0 BDE8F081 		pop	{r4, r5, r6, r7, r8, pc}
 530              	.LVL57:
 531              	.L30:
 105:Core/Src/ms5803.c **** 	int32_t temp = 2000 + (dT*MS5803_coefficient[5])/(8388608);
 532              		.loc 1 105 50 view .LVU137
 533 00c4 03F5FF03 		add	r3, r3, #8355840
 534 00c8 03F5FF43 		add	r3, r3, #32640
 535 00cc 7F33     		adds	r3, r3, #127
 536 00ce B0E7     		b	.L24
 537              	.LVL58:
 538              	.L31:
 110:Core/Src/ms5803.c **** 	int64_t SENS = MS5803_coefficient[0] * (32768) + (MS5803_coefficient[2]*dT)/(256);
 539              		.loc 1 110 77 view .LVU138
 540 00d0 FF32     		adds	r2, r2, #255
 541 00d2 D3E7     		b	.L26
 542              	.LVL59:
 543              	.L32:
 111:Core/Src/ms5803.c **** 	int64_t mult = pressure_raw*SENS/2097152;
 544              		.loc 1 111 10 view .LVU139
 545 00d4 0748     		ldr	r0, .L34+8
 546 00d6 0918     		adds	r1, r1, r0
 547 00d8 42F10000 		adc	r0, r2, #0
 548 00dc D8E7     		b	.L27
 549              	.LVL60:
 550              	.L33:
 112:Core/Src/ms5803.c **** 	int32_t pres = (mult-OFF)/32768;
 551              		.loc 1 112 27 view .LVU140
 552 00de 47F6FF71 		movw	r1, #32767
 553 00e2 5218     		adds	r2, r2, r1
 554 00e4 43F10001 		adc	r1, r3, #0
 555 00e8 DDE7     		b	.L28
 556              	.L35:
 557 00ea 00BF     		.align	2
 558              	.L34:
 559 00ec 00000000 		.word	MS5803_coefficient
 560 00f0 0000C842 		.word	1120403456
 561 00f4 FFFF1F00 		.word	2097151
 562              		.cfi_endproc
 563              	.LFE137:
 565              		.text
 566              	.Letext0:
 567              		.file 2 "C:/Users/John_/AppData/Roaming/Code/User/globalStorage/bmd.stm32-for-vscode/@xpack-dev-to
 568              		.file 3 "C:/Users/John_/AppData/Roaming/Code/User/globalStorage/bmd.stm32-for-vscode/@xpack-dev-to
 569              		.file 4 "Drivers/CMSIS/Device/ST/STM32G4xx/Include/stm32g431xx.h"
 570              		.file 5 "Drivers/STM32G4xx_HAL_Driver/Inc/stm32g4xx_hal_def.h"
 571              		.file 6 "Drivers/STM32G4xx_HAL_Driver/Inc/stm32g4xx_hal_dma.h"
 572              		.file 7 "Drivers/STM32G4xx_HAL_Driver/Inc/stm32g4xx_hal_i2c.h"
 573              		.file 8 "Core/Inc/ms5803.h"
 574              		.file 9 "Drivers/STM32G4xx_HAL_Driver/Inc/stm32g4xx_hal.h"
ARM GAS  C:\Users\John_\AppData\Local\Temp\cc4FQFzg.s 			page 13

